
/Users/yingyedeng/pico/pico-projects/uart-driver/build/uart-driver.elf:     file format elf32-littlearm

Sections:
Idx Name          Size      VMA       LMA       File off  Algn
  0 .text         000016bc  10000000  10000000  00001000  2**3
                  CONTENTS, ALLOC, LOAD, READONLY, CODE
  1 .rodata       000000e4  100016bc  100016bc  000026bc  2**2
                  CONTENTS, ALLOC, LOAD, READONLY, DATA
  2 .ARM.exidx    00000008  100017a0  100017a0  000027a0  2**2
                  CONTENTS, ALLOC, LOAD, READONLY, DATA
  3 .binary_info  0000001c  100017a8  100017a8  000027a8  2**2
                  CONTENTS, ALLOC, LOAD, READONLY, DATA
  4 .ram_vector_table 00000110  20000000  20000000  00004000  2**2
                  ALLOC
  5 .uninitialized_data 00000000  20000110  20000110  00003914  2**0
                  CONTENTS
  6 .data         0000013c  20000110  100017c4  00003110  2**3
                  CONTENTS, ALLOC, LOAD, READONLY, CODE
  7 .tdata        00000000  2000024c  2000024c  00003914  2**0
                  CONTENTS, ALLOC, LOAD, DATA, THREAD_LOCAL
  8 .tbss         00000000  2000024c  2000024c  00000000  2**0
                  ALLOC, THREAD_LOCAL
  9 .bss          0000021c  20000250  10001900  00004250  2**3
                  ALLOC
 10 .heap         00000800  2000046c  10001900  0000446c  2**2
                  ALLOC, READONLY
 11 .scratch_x    00000000  20080000  20080000  00003914  2**0
                  CONTENTS
 12 .scratch_y    00000000  20081000  20081000  00003914  2**0
                  CONTENTS
 13 .stack_dummy  00000800  20081000  20081000  00004000  2**5
                  ALLOC, READONLY
 14 .flash_end    00000014  10001900  10001900  00003900  2**2
                  CONTENTS, ALLOC, LOAD, READONLY, DATA
 15 .ARM.attributes 00000034  00000000  00000000  00003914  2**0
                  CONTENTS, READONLY
 16 .comment      00000046  00000000  00000000  00003948  2**0
                  CONTENTS, READONLY
 17 .debug_info   0001dcb2  00000000  00000000  0000398e  2**0
                  CONTENTS, READONLY, DEBUGGING, OCTETS
 18 .debug_abbrev 00004fd8  00000000  00000000  00021640  2**0
                  CONTENTS, READONLY, DEBUGGING, OCTETS
 19 .debug_loclists 0000efa7  00000000  00000000  00026618  2**0
                  CONTENTS, READONLY, DEBUGGING, OCTETS
 20 .debug_aranges 00000a28  00000000  00000000  000355c0  2**3
                  CONTENTS, READONLY, DEBUGGING, OCTETS
 21 .debug_rnglists 00002ba7  00000000  00000000  00035fe8  2**0
                  CONTENTS, READONLY, DEBUGGING, OCTETS
 22 .debug_line   00013ab3  00000000  00000000  00038b8f  2**0
                  CONTENTS, READONLY, DEBUGGING, OCTETS
 23 .debug_str    00004faf  00000000  00000000  0004c642  2**0
                  CONTENTS, READONLY, DEBUGGING, OCTETS
 24 .debug_frame  00001ca0  00000000  00000000  000515f4  2**2
                  CONTENTS, READONLY, DEBUGGING, OCTETS
 25 .debug_line_str 00000169  00000000  00000000  00053294  2**0
                  CONTENTS, READONLY, DEBUGGING, OCTETS

/Users/yingyedeng/pico/pico-projects/uart-driver/build/uart-driver.elf:     file format elf32-littlearm


Disassembly of section .text:

10000000 <__VECTOR_TABLE>:
10000000:	20082000 	.word	0x20082000
10000004:	1000015d 	.word	0x1000015d
10000008:	1000011b 	.word	0x1000011b
1000000c:	1000011d 	.word	0x1000011d
10000010:	10000111 	.word	0x10000111
10000014:	10000111 	.word	0x10000111
10000018:	10000111 	.word	0x10000111
1000001c:	10000111 	.word	0x10000111
10000020:	10000119 	.word	0x10000119
10000024:	10000119 	.word	0x10000119
10000028:	10000119 	.word	0x10000119
1000002c:	1000011f 	.word	0x1000011f
10000030:	10000111 	.word	0x10000111
10000034:	10000119 	.word	0x10000119
10000038:	10000121 	.word	0x10000121
1000003c:	10000123 	.word	0x10000123
10000040:	10000111 	.word	0x10000111
10000044:	10000111 	.word	0x10000111
10000048:	10000111 	.word	0x10000111
1000004c:	10000111 	.word	0x10000111
10000050:	10000111 	.word	0x10000111
10000054:	10000111 	.word	0x10000111
10000058:	10000111 	.word	0x10000111
1000005c:	10000111 	.word	0x10000111
10000060:	10000111 	.word	0x10000111
10000064:	10000111 	.word	0x10000111
10000068:	10000111 	.word	0x10000111
1000006c:	10000111 	.word	0x10000111
10000070:	10000111 	.word	0x10000111
10000074:	10000111 	.word	0x10000111
10000078:	10000111 	.word	0x10000111
1000007c:	10000111 	.word	0x10000111
10000080:	10000111 	.word	0x10000111
10000084:	10000111 	.word	0x10000111
10000088:	10000111 	.word	0x10000111
1000008c:	10000111 	.word	0x10000111
10000090:	10000111 	.word	0x10000111
10000094:	10000111 	.word	0x10000111
10000098:	10000111 	.word	0x10000111
1000009c:	10000111 	.word	0x10000111
100000a0:	10000111 	.word	0x10000111
100000a4:	10000111 	.word	0x10000111
100000a8:	10000111 	.word	0x10000111
100000ac:	10000111 	.word	0x10000111
100000b0:	10000111 	.word	0x10000111
100000b4:	10000111 	.word	0x10000111
100000b8:	10000111 	.word	0x10000111
100000bc:	10000111 	.word	0x10000111
100000c0:	10000111 	.word	0x10000111
100000c4:	10000111 	.word	0x10000111
100000c8:	10000111 	.word	0x10000111
100000cc:	10000111 	.word	0x10000111
100000d0:	10000111 	.word	0x10000111
100000d4:	10000111 	.word	0x10000111
100000d8:	10000111 	.word	0x10000111
100000dc:	10000111 	.word	0x10000111
100000e0:	10000111 	.word	0x10000111
100000e4:	10000111 	.word	0x10000111
100000e8:	10000111 	.word	0x10000111
100000ec:	10000111 	.word	0x10000111
100000f0:	10000111 	.word	0x10000111
100000f4:	10000111 	.word	0x10000111
100000f8:	10000111 	.word	0x10000111
100000fc:	10000111 	.word	0x10000111
10000100:	10000111 	.word	0x10000111
10000104:	10000111 	.word	0x10000111
10000108:	10000111 	.word	0x10000111
1000010c:	10000111 	.word	0x10000111

10000110 <__unhandled_user_irq>:
10000110:	f3ef 8005 	mrs	r0, IPSR
10000114:	3810      	subs	r0, #16

10000116 <unhandled_user_irq_num_in_r0>:
10000116:	be00      	bkpt	0x0000

10000118 <isr_invalid>:
10000118:	be00      	bkpt	0x0000

1000011a <isr_nmi>:
1000011a:	be00      	bkpt	0x0000

1000011c <isr_hardfault>:
1000011c:	be00      	bkpt	0x0000

1000011e <isr_svcall>:
1000011e:	be00      	bkpt	0x0000

10000120 <isr_pendsv>:
10000120:	be00      	bkpt	0x0000

10000122 <isr_systick>:
10000122:	be00      	bkpt	0x0000

10000124 <__default_isrs_end>:
10000124:	7188ebf2 	.word	0x7188ebf2
10000128:	100017a8 	.word	0x100017a8
1000012c:	100017c4 	.word	0x100017c4
10000130:	100001a0 	.word	0x100001a0
10000134:	e71aa390 	.word	0xe71aa390

10000138 <__binary_info_header_end>:
10000138:	ffffded3 	.word	0xffffded3
1000013c:	10210142 	.word	0x10210142
10000140:	000001ff 	.word	0x000001ff
10000144:	000017c8 	.word	0x000017c8
10000148:	ab123579 	.word	0xab123579

1000014c <_entry_point>:
1000014c:	f04f 0000 	mov.w	r0, #0

10000150 <_enter_vtable_in_r0>:
10000150:	491e      	ldr	r1, [pc, #120]	@ (100001cc <data_cpy_table+0x2c>)
10000152:	6008      	str	r0, [r1, #0]
10000154:	c806      	ldmia	r0!, {r1, r2}
10000156:	f381 8808 	msr	MSP, r1
1000015a:	4710      	bx	r2

1000015c <_reset_handler>:
1000015c:	f04f 4050 	mov.w	r0, #3489660928	@ 0xd0000000
10000160:	6800      	ldr	r0, [r0, #0]
10000162:	b110      	cbz	r0, 1000016a <hold_non_core0_in_bootrom+0x6>

10000164 <hold_non_core0_in_bootrom>:
10000164:	f04f 0000 	mov.w	r0, #0
10000168:	e7f2      	b.n	10000150 <_enter_vtable_in_r0>
1000016a:	a40d      	add	r4, pc, #52	@ (adr r4, 100001a0 <data_cpy_table>)
1000016c:	cc0e      	ldmia	r4!, {r1, r2, r3}
1000016e:	2900      	cmp	r1, #0
10000170:	d002      	beq.n	10000178 <hold_non_core0_in_bootrom+0x14>
10000172:	f000 f812 	bl	1000019a <data_cpy>
10000176:	e7f9      	b.n	1000016c <hold_non_core0_in_bootrom+0x8>
10000178:	4915      	ldr	r1, [pc, #84]	@ (100001d0 <data_cpy_table+0x30>)
1000017a:	4a16      	ldr	r2, [pc, #88]	@ (100001d4 <data_cpy_table+0x34>)
1000017c:	2000      	movs	r0, #0
1000017e:	e000      	b.n	10000182 <bss_fill_test>

10000180 <bss_fill_loop>:
10000180:	c101      	stmia	r1!, {r0}

10000182 <bss_fill_test>:
10000182:	4291      	cmp	r1, r2
10000184:	d1fc      	bne.n	10000180 <bss_fill_loop>

10000186 <platform_entry>:
10000186:	4914      	ldr	r1, [pc, #80]	@ (100001d8 <data_cpy_table+0x38>)
10000188:	4788      	blx	r1
1000018a:	4914      	ldr	r1, [pc, #80]	@ (100001dc <data_cpy_table+0x3c>)
1000018c:	4788      	blx	r1
1000018e:	4914      	ldr	r1, [pc, #80]	@ (100001e0 <data_cpy_table+0x40>)
10000190:	4788      	blx	r1
10000192:	be00      	bkpt	0x0000
10000194:	e7fd      	b.n	10000192 <platform_entry+0xc>

10000196 <data_cpy_loop>:
10000196:	c901      	ldmia	r1!, {r0}
10000198:	c201      	stmia	r2!, {r0}

1000019a <data_cpy>:
1000019a:	429a      	cmp	r2, r3
1000019c:	d3fb      	bcc.n	10000196 <data_cpy_loop>
1000019e:	4770      	bx	lr

100001a0 <data_cpy_table>:
100001a0:	100017c4 	.word	0x100017c4
100001a4:	20000110 	.word	0x20000110
100001a8:	2000024c 	.word	0x2000024c
100001ac:	10001900 	.word	0x10001900
100001b0:	20080000 	.word	0x20080000
100001b4:	20080000 	.word	0x20080000
100001b8:	10001900 	.word	0x10001900
100001bc:	20081000 	.word	0x20081000
100001c0:	20081000 	.word	0x20081000
100001c4:	00000000 	.word	0x00000000
100001c8:	4770      	bx	lr
100001ca:	0000      	.short	0x0000
100001cc:	e000ed08 	.word	0xe000ed08
100001d0:	2000024c 	.word	0x2000024c
100001d4:	2000046c 	.word	0x2000046c
100001d8:	10001291 	.word	0x10001291
100001dc:	100002b9 	.word	0x100002b9
100001e0:	10001289 	.word	0x10001289

100001e4 <_init>:
100001e4:	b5f8      	push	{r3, r4, r5, r6, r7, lr}
100001e6:	bf00      	nop

100001e8 <register_tm_clones>:
100001e8:	4b06      	ldr	r3, [pc, #24]	@ (10000204 <register_tm_clones+0x1c>)
100001ea:	4907      	ldr	r1, [pc, #28]	@ (10000208 <register_tm_clones+0x20>)
100001ec:	1ac9      	subs	r1, r1, r3
100001ee:	1089      	asrs	r1, r1, #2
100001f0:	bf48      	it	mi
100001f2:	3101      	addmi	r1, #1
100001f4:	1049      	asrs	r1, r1, #1
100001f6:	d003      	beq.n	10000200 <register_tm_clones+0x18>
100001f8:	4b04      	ldr	r3, [pc, #16]	@ (1000020c <register_tm_clones+0x24>)
100001fa:	b10b      	cbz	r3, 10000200 <register_tm_clones+0x18>
100001fc:	4801      	ldr	r0, [pc, #4]	@ (10000204 <register_tm_clones+0x1c>)
100001fe:	4718      	bx	r3
10000200:	4770      	bx	lr
10000202:	bf00      	nop
10000204:	2000024c 	.word	0x2000024c
10000208:	2000024c 	.word	0x2000024c
1000020c:	00000000 	.word	0x00000000

10000210 <frame_dummy>:
10000210:	b508      	push	{r3, lr}
10000212:	4b05      	ldr	r3, [pc, #20]	@ (10000228 <frame_dummy+0x18>)
10000214:	b11b      	cbz	r3, 1000021e <frame_dummy+0xe>
10000216:	4905      	ldr	r1, [pc, #20]	@ (1000022c <frame_dummy+0x1c>)
10000218:	4805      	ldr	r0, [pc, #20]	@ (10000230 <frame_dummy+0x20>)
1000021a:	f3af 8000 	nop.w
1000021e:	e8bd 4008 	ldmia.w	sp!, {r3, lr}
10000222:	f7ff bfe1 	b.w	100001e8 <register_tm_clones>
10000226:	bf00      	nop
10000228:	00000000 	.word	0x00000000
1000022c:	2000042c 	.word	0x2000042c
10000230:	100016bc 	.word	0x100016bc

10000234 <tx_timer_transitions>:
10000234:	4a1c      	ldr	r2, [pc, #112]	@ (100002a8 <tx_timer_transitions+0x74>)
10000236:	7813      	ldrb	r3, [r2, #0]
10000238:	2b03      	cmp	r3, #3
1000023a:	d808      	bhi.n	1000024e <tx_timer_transitions+0x1a>
1000023c:	e8df f003 	tbb	[pc, r3]
10000240:	09132a02 	.word	0x09132a02
10000244:	2300      	movs	r3, #0
10000246:	f04f 0201 	mov.w	r2, #1
1000024a:	ec42 3040 	gpioc_bit_out_put r3, r2
1000024e:	2001      	movs	r0, #1
10000250:	4770      	bx	lr
10000252:	2300      	movs	r3, #0
10000254:	f04f 0101 	mov.w	r1, #1
10000258:	ec41 3040 	gpioc_bit_out_put r3, r1
1000025c:	4913      	ldr	r1, [pc, #76]	@ (100002ac <tx_timer_transitions+0x78>)
1000025e:	7013      	strb	r3, [r2, #0]
10000260:	2001      	movs	r0, #1
10000262:	700b      	strb	r3, [r1, #0]
10000264:	4770      	bx	lr
10000266:	b410      	push	{r4}
10000268:	4911      	ldr	r1, [pc, #68]	@ (100002b0 <tx_timer_transitions+0x7c>)
1000026a:	4b12      	ldr	r3, [pc, #72]	@ (100002b4 <tx_timer_transitions+0x80>)
1000026c:	2000      	movs	r0, #0
1000026e:	781b      	ldrb	r3, [r3, #0]
10000270:	680c      	ldr	r4, [r1, #0]
10000272:	4123      	asrs	r3, r4
10000274:	f003 0301 	and.w	r3, r3, #1
10000278:	ec43 0040 	gpioc_bit_out_put r0, r3
1000027c:	680b      	ldr	r3, [r1, #0]
1000027e:	3301      	adds	r3, #1
10000280:	600b      	str	r3, [r1, #0]
10000282:	680b      	ldr	r3, [r1, #0]
10000284:	2b07      	cmp	r3, #7
10000286:	dd01      	ble.n	1000028c <tx_timer_transitions+0x58>
10000288:	2303      	movs	r3, #3
1000028a:	7013      	strb	r3, [r2, #0]
1000028c:	2001      	movs	r0, #1
1000028e:	f85d 4b04 	ldr.w	r4, [sp], #4
10000292:	4770      	bx	lr
10000294:	2300      	movs	r3, #0
10000296:	ec43 3040 	gpioc_bit_out_put r3, r3
1000029a:	2002      	movs	r0, #2
1000029c:	4904      	ldr	r1, [pc, #16]	@ (100002b0 <tx_timer_transitions+0x7c>)
1000029e:	7010      	strb	r0, [r2, #0]
100002a0:	2001      	movs	r0, #1
100002a2:	600b      	str	r3, [r1, #0]
100002a4:	4770      	bx	lr
100002a6:	bf00      	nop
100002a8:	2000046a 	.word	0x2000046a
100002ac:	20000468 	.word	0x20000468
100002b0:	200003f0 	.word	0x200003f0
100002b4:	20000469 	.word	0x20000469

100002b8 <main>:
100002b8:	b5f0      	push	{r4, r5, r6, r7, lr}
100002ba:	b08b      	sub	sp, #44	@ 0x2c
100002bc:	f001 f8cc 	bl	10001458 <stdio_init_all>
100002c0:	2000      	movs	r0, #0
100002c2:	f000 f833 	bl	1000032c <gpio_init>
100002c6:	2400      	movs	r4, #0
100002c8:	f04f 0301 	mov.w	r3, #1
100002cc:	ec43 4044 	gpioc_bit_oe_put r4, r3
100002d0:	ec43 4040 	gpioc_bit_out_put r4, r3
100002d4:	f000 fb62 	bl	1000099c <alarm_pool_get_default>
100002d8:	490f      	ldr	r1, [pc, #60]	@ (10000318 <main+0x60>)
100002da:	ad04      	add	r5, sp, #16
100002dc:	e9cd 4501 	strd	r4, r5, [sp, #4]
100002e0:	f06f 0208 	mvn.w	r2, #8
100002e4:	f04f 33ff 	mov.w	r3, #4294967295	@ 0xffffffff
100002e8:	9100      	str	r1, [sp, #0]
100002ea:	f000 fcd7 	bl	10000c9c <alarm_pool_add_repeating_timer_us>
100002ee:	2501      	movs	r5, #1
100002f0:	4c0a      	ldr	r4, [pc, #40]	@ (1000031c <main+0x64>)
100002f2:	4f0b      	ldr	r7, [pc, #44]	@ (10000320 <main+0x68>)
100002f4:	4e0b      	ldr	r6, [pc, #44]	@ (10000324 <main+0x6c>)
100002f6:	2248      	movs	r2, #72	@ 0x48
100002f8:	490b      	ldr	r1, [pc, #44]	@ (10000328 <main+0x70>)
100002fa:	7823      	ldrb	r3, [r4, #0]
100002fc:	2b00      	cmp	r3, #0
100002fe:	d1fc      	bne.n	100002fa <main+0x42>
10000300:	703a      	strb	r2, [r7, #0]
10000302:	f811 2f01 	ldrb.w	r2, [r1, #1]!
10000306:	7025      	strb	r5, [r4, #0]
10000308:	7035      	strb	r5, [r6, #0]
1000030a:	2a00      	cmp	r2, #0
1000030c:	d1f5      	bne.n	100002fa <main+0x42>
1000030e:	f44f 707a 	mov.w	r0, #1000	@ 0x3e8
10000312:	f000 fbeb 	bl	10000aec <sleep_ms>
10000316:	e7ee      	b.n	100002f6 <main+0x3e>
10000318:	10000235 	.word	0x10000235
1000031c:	20000468 	.word	0x20000468
10000320:	20000469 	.word	0x20000469
10000324:	2000046a 	.word	0x2000046a
10000328:	100016bc 	.word	0x100016bc

1000032c <gpio_init>:
1000032c:	b430      	push	{r4, r5}
1000032e:	f04f 0300 	mov.w	r3, #0
10000332:	ec43 0044 	gpioc_bit_oe_put r0, r3
10000336:	ec43 0040 	gpioc_bit_out_put r0, r3
1000033a:	2505      	movs	r5, #5
1000033c:	f44f 7480 	mov.w	r4, #256	@ 0x100
10000340:	4b0b      	ldr	r3, [pc, #44]	@ (10000370 <gpio_init+0x44>)
10000342:	00c2      	lsls	r2, r0, #3
10000344:	f853 1020 	ldr.w	r1, [r3, r0, lsl #2]
10000348:	eb03 0080 	add.w	r0, r3, r0, lsl #2
1000034c:	f081 0140 	eor.w	r1, r1, #64	@ 0x40
10000350:	f102 4380 	add.w	r3, r2, #1073741824	@ 0x40000000
10000354:	f503 3320 	add.w	r3, r3, #163840	@ 0x28000
10000358:	f001 02c0 	and.w	r2, r1, #192	@ 0xc0
1000035c:	f500 5180 	add.w	r1, r0, #4096	@ 0x1000
10000360:	f500 5040 	add.w	r0, r0, #12288	@ 0x3000
10000364:	600a      	str	r2, [r1, #0]
10000366:	605d      	str	r5, [r3, #4]
10000368:	6004      	str	r4, [r0, #0]
1000036a:	bc30      	pop	{r4, r5}
1000036c:	4770      	bx	lr
1000036e:	bf00      	nop
10000370:	40038004 	.word	0x40038004

10000374 <panic>:
10000374:	b40f      	push	{r0, r1, r2, r3}
10000376:	b500      	push	{lr}
10000378:	b083      	sub	sp, #12
1000037a:	9c04      	ldr	r4, [sp, #16]
1000037c:	4807      	ldr	r0, [pc, #28]	@ (1000039c <panic+0x28>)
1000037e:	f001 f8af 	bl	100014e0 <__wrap_puts>
10000382:	b13c      	cbz	r4, 10000394 <panic+0x20>
10000384:	a905      	add	r1, sp, #20
10000386:	4620      	mov	r0, r4
10000388:	9101      	str	r1, [sp, #4]
1000038a:	f000 ff63 	bl	10001254 <weak_raw_vprintf>
1000038e:	4804      	ldr	r0, [pc, #16]	@ (100003a0 <panic+0x2c>)
10000390:	f001 f8a6 	bl	100014e0 <__wrap_puts>
10000394:	2001      	movs	r0, #1
10000396:	f000 ff75 	bl	10001284 <_exit>
1000039a:	bf00      	nop
1000039c:	100016c4 	.word	0x100016c4
100003a0:	100016d4 	.word	0x100016d4

100003a4 <hw_claim_or_assert>:
100003a4:	b570      	push	{r4, r5, r6, lr}
100003a6:	4686      	mov	lr, r0
100003a8:	f3ef 8510 	mrs	r5, PRIMASK
100003ac:	b672      	cpsid	i
100003ae:	4c12      	ldr	r4, [pc, #72]	@ (100003f8 <hw_claim_or_assert+0x54>)
100003b0:	e8d4 6fcf 	ldaexb	r6, [r4]
100003b4:	2001      	movs	r0, #1
100003b6:	2e00      	cmp	r6, #0
100003b8:	d1fa      	bne.n	100003b0 <hw_claim_or_assert+0xc>
100003ba:	e8c4 0f46 	strexb	r6, r0, [r4]
100003be:	2e00      	cmp	r6, #0
100003c0:	d1f6      	bne.n	100003b0 <hw_claim_or_assert+0xc>
100003c2:	f3bf 8f5f 	dmb	sy
100003c6:	f04f 0c01 	mov.w	ip, #1
100003ca:	08c8      	lsrs	r0, r1, #3
100003cc:	f001 0307 	and.w	r3, r1, #7
100003d0:	fa0c f303 	lsl.w	r3, ip, r3
100003d4:	f81e c000 	ldrb.w	ip, [lr, r0]
100003d8:	ea1c 0603 	ands.w	r6, ip, r3
100003dc:	d108      	bne.n	100003f0 <hw_claim_or_assert+0x4c>
100003de:	ea4c 0c03 	orr.w	ip, ip, r3
100003e2:	f80e c000 	strb.w	ip, [lr, r0]
100003e6:	e8c4 6f8f 	stlb	r6, [r4]
100003ea:	f385 8810 	msr	PRIMASK, r5
100003ee:	bd70      	pop	{r4, r5, r6, pc}
100003f0:	4610      	mov	r0, r2
100003f2:	f7ff ffbf 	bl	10000374 <panic>
100003f6:	bf00      	nop
100003f8:	200003db 	.word	0x200003db

100003fc <next_striped_spin_lock_num>:
100003fc:	4a04      	ldr	r2, [pc, #16]	@ (10000410 <next_striped_spin_lock_num+0x14>)
100003fe:	7810      	ldrb	r0, [r2, #0]
10000400:	1c43      	adds	r3, r0, #1
10000402:	b2db      	uxtb	r3, r3
10000404:	2b18      	cmp	r3, #24
10000406:	bf28      	it	cs
10000408:	2310      	movcs	r3, #16
1000040a:	7013      	strb	r3, [r2, #0]
1000040c:	4770      	bx	lr
1000040e:	bf00      	nop
10000410:	20000228 	.word	0x20000228

10000414 <spinlock_set_extexclall>:
10000414:	f04f 22e0 	mov.w	r2, #3758153728	@ 0xe000e000
10000418:	6893      	ldr	r3, [r2, #8]
1000041a:	f043 5300 	orr.w	r3, r3, #536870912	@ 0x20000000
1000041e:	6093      	str	r3, [r2, #8]
10000420:	4770      	bx	lr
10000422:	bf00      	nop

10000424 <spin_locks_reset>:
10000424:	2100      	movs	r1, #0
10000426:	4b04      	ldr	r3, [pc, #16]	@ (10000438 <spin_locks_reset+0x14>)
10000428:	f103 0220 	add.w	r2, r3, #32
1000042c:	e8c3 1f8f 	stlb	r1, [r3]
10000430:	3301      	adds	r3, #1
10000432:	4293      	cmp	r3, r2
10000434:	d1fa      	bne.n	1000042c <spin_locks_reset+0x8>
10000436:	4770      	bx	lr
10000438:	200003d0 	.word	0x200003d0

1000043c <runtime_init_per_core_irq_priorities>:
1000043c:	f04f 23e0 	mov.w	r3, #3758153728	@ 0xe000e000
10000440:	f04f 3280 	mov.w	r2, #2155905152	@ 0x80808080
10000444:	f8c3 2400 	str.w	r2, [r3, #1024]	@ 0x400
10000448:	f8c3 2404 	str.w	r2, [r3, #1028]	@ 0x404
1000044c:	f8c3 2408 	str.w	r2, [r3, #1032]	@ 0x408
10000450:	f8c3 240c 	str.w	r2, [r3, #1036]	@ 0x40c
10000454:	f8c3 2410 	str.w	r2, [r3, #1040]	@ 0x410
10000458:	f8c3 2414 	str.w	r2, [r3, #1044]	@ 0x414
1000045c:	f8c3 2418 	str.w	r2, [r3, #1048]	@ 0x418
10000460:	f8c3 241c 	str.w	r2, [r3, #1052]	@ 0x41c
10000464:	f8c3 2420 	str.w	r2, [r3, #1056]	@ 0x420
10000468:	f8c3 2424 	str.w	r2, [r3, #1060]	@ 0x424
1000046c:	f8c3 2428 	str.w	r2, [r3, #1064]	@ 0x428
10000470:	f8c3 242c 	str.w	r2, [r3, #1068]	@ 0x42c
10000474:	f8c3 2430 	str.w	r2, [r3, #1072]	@ 0x430
10000478:	b662      	cpsie	i
1000047a:	4770      	bx	lr

1000047c <irq_set_enabled>:
1000047c:	2301      	movs	r3, #1
1000047e:	f000 021f 	and.w	r2, r0, #31
10000482:	4093      	lsls	r3, r2
10000484:	0940      	lsrs	r0, r0, #5
10000486:	b141      	cbz	r1, 1000049a <irq_set_enabled+0x1e>
10000488:	0080      	lsls	r0, r0, #2
1000048a:	f100 4060 	add.w	r0, r0, #3758096384	@ 0xe0000000
1000048e:	f500 4061 	add.w	r0, r0, #57600	@ 0xe100
10000492:	f8c0 3180 	str.w	r3, [r0, #384]	@ 0x180
10000496:	6003      	str	r3, [r0, #0]
10000498:	4770      	bx	lr
1000049a:	4a02      	ldr	r2, [pc, #8]	@ (100004a4 <irq_set_enabled+0x28>)
1000049c:	3020      	adds	r0, #32
1000049e:	f842 3020 	str.w	r3, [r2, r0, lsl #2]
100004a2:	4770      	bx	lr
100004a4:	e000e100 	.word	0xe000e100

100004a8 <irq_set_exclusive_handler>:
100004a8:	b5f8      	push	{r3, r4, r5, r6, r7, lr}
100004aa:	460d      	mov	r5, r1
100004ac:	f3ef 8710 	mrs	r7, PRIMASK
100004b0:	b672      	cpsid	i
100004b2:	4e12      	ldr	r6, [pc, #72]	@ (100004fc <irq_set_exclusive_handler+0x54>)
100004b4:	e8d6 2fcf 	ldaexb	r2, [r6]
100004b8:	2301      	movs	r3, #1
100004ba:	2a00      	cmp	r2, #0
100004bc:	d1fa      	bne.n	100004b4 <irq_set_exclusive_handler+0xc>
100004be:	e8c6 3f42 	strexb	r2, r3, [r6]
100004c2:	2a00      	cmp	r2, #0
100004c4:	d1f6      	bne.n	100004b4 <irq_set_exclusive_handler+0xc>
100004c6:	f3bf 8f5f 	dmb	sy
100004ca:	4b0d      	ldr	r3, [pc, #52]	@ (10000500 <irq_set_exclusive_handler+0x58>)
100004cc:	f100 0410 	add.w	r4, r0, #16
100004d0:	689b      	ldr	r3, [r3, #8]
100004d2:	4a0c      	ldr	r2, [pc, #48]	@ (10000504 <irq_set_exclusive_handler+0x5c>)
100004d4:	f853 3024 	ldr.w	r3, [r3, r4, lsl #2]
100004d8:	4293      	cmp	r3, r2
100004da:	d003      	beq.n	100004e4 <irq_set_exclusive_handler+0x3c>
100004dc:	4299      	cmp	r1, r3
100004de:	d001      	beq.n	100004e4 <irq_set_exclusive_handler+0x3c>
100004e0:	f000 fda0 	bl	10001024 <hard_assertion_failure>
100004e4:	4b06      	ldr	r3, [pc, #24]	@ (10000500 <irq_set_exclusive_handler+0x58>)
100004e6:	689b      	ldr	r3, [r3, #8]
100004e8:	f843 5024 	str.w	r5, [r3, r4, lsl #2]
100004ec:	f3bf 8f5f 	dmb	sy
100004f0:	2300      	movs	r3, #0
100004f2:	e8c6 3f8f 	stlb	r3, [r6]
100004f6:	f387 8810 	msr	PRIMASK, r7
100004fa:	bdf8      	pop	{r3, r4, r5, r6, r7, pc}
100004fc:	200003d9 	.word	0x200003d9
10000500:	e000ed00 	.word	0xe000ed00
10000504:	10000111 	.word	0x10000111

10000508 <lock_init>:
10000508:	4b01      	ldr	r3, [pc, #4]	@ (10000510 <lock_init+0x8>)
1000050a:	440b      	add	r3, r1
1000050c:	6003      	str	r3, [r0, #0]
1000050e:	4770      	bx	lr
10000510:	200003d0 	.word	0x200003d0

10000514 <runtime_init_mutex>:
10000514:	b570      	push	{r4, r5, r6, lr}
10000516:	4c10      	ldr	r4, [pc, #64]	@ (10000558 <runtime_init_mutex+0x44>)
10000518:	4d10      	ldr	r5, [pc, #64]	@ (1000055c <runtime_init_mutex+0x48>)
1000051a:	42ac      	cmp	r4, r5
1000051c:	d20e      	bcs.n	1000053c <runtime_init_mutex+0x28>
1000051e:	26ff      	movs	r6, #255	@ 0xff
10000520:	6823      	ldr	r3, [r4, #0]
10000522:	b163      	cbz	r3, 1000053e <runtime_init_mutex+0x2a>
10000524:	f7ff ff6a 	bl	100003fc <next_striped_spin_lock_num>
10000528:	4601      	mov	r1, r0
1000052a:	4620      	mov	r0, r4
1000052c:	f7ff ffec 	bl	10000508 <lock_init>
10000530:	80a6      	strh	r6, [r4, #4]
10000532:	f3bf 8f5f 	dmb	sy
10000536:	3408      	adds	r4, #8
10000538:	42ac      	cmp	r4, r5
1000053a:	d3f1      	bcc.n	10000520 <runtime_init_mutex+0xc>
1000053c:	bd70      	pop	{r4, r5, r6, pc}
1000053e:	f7ff ff5d 	bl	100003fc <next_striped_spin_lock_num>
10000542:	4601      	mov	r1, r0
10000544:	4620      	mov	r0, r4
10000546:	f7ff ffdf 	bl	10000508 <lock_init>
1000054a:	7126      	strb	r6, [r4, #4]
1000054c:	f3bf 8f5f 	dmb	sy
10000550:	3408      	adds	r4, #8
10000552:	42ac      	cmp	r4, r5
10000554:	d3e4      	bcc.n	10000520 <runtime_init_mutex+0xc>
10000556:	bd70      	pop	{r4, r5, r6, pc}
10000558:	20000244 	.word	0x20000244
1000055c:	2000024c 	.word	0x2000024c

10000560 <sleep_until_callback>:
10000560:	4b0d      	ldr	r3, [pc, #52]	@ (10000598 <sleep_until_callback+0x38>)
10000562:	681a      	ldr	r2, [r3, #0]
10000564:	f3ef 8110 	mrs	r1, PRIMASK
10000568:	b672      	cpsid	i
1000056a:	e8d2 cfcf 	ldaexb	ip, [r2]
1000056e:	2001      	movs	r0, #1
10000570:	f1bc 0f00 	cmp.w	ip, #0
10000574:	d1f9      	bne.n	1000056a <sleep_until_callback+0xa>
10000576:	e8c2 0f4c 	strexb	ip, r0, [r2]
1000057a:	f1bc 0f00 	cmp.w	ip, #0
1000057e:	d1f4      	bne.n	1000056a <sleep_until_callback+0xa>
10000580:	f3bf 8f5f 	dmb	sy
10000584:	2200      	movs	r2, #0
10000586:	681b      	ldr	r3, [r3, #0]
10000588:	e8c3 2f8f 	stlb	r2, [r3]
1000058c:	f381 8810 	msr	PRIMASK, r1
10000590:	bf40      	sev
10000592:	2000      	movs	r0, #0
10000594:	2100      	movs	r1, #0
10000596:	4770      	bx	lr
10000598:	20000464 	.word	0x20000464
1000059c:	00000000 	.word	0x00000000

100005a0 <alarm_pool_irq_handler>:
100005a0:	e92d 4ff0 	stmdb	sp!, {r4, r5, r6, r7, r8, r9, sl, fp, lr}
100005a4:	ed2d 8b02 	vpush	{d8}
100005a8:	b085      	sub	sp, #20
100005aa:	f3ef 8305 	mrs	r3, IPSR
100005ae:	b2db      	uxtb	r3, r3
100005b0:	3b10      	subs	r3, #16
100005b2:	089a      	lsrs	r2, r3, #2
100005b4:	bf18      	it	ne
100005b6:	2201      	movne	r2, #1
100005b8:	f04f 0101 	mov.w	r1, #1
100005bc:	f003 0b03 	and.w	fp, r3, #3
100005c0:	bf18      	it	ne
100005c2:	4dad      	ldrne	r5, [pc, #692]	@ (10000878 <alarm_pool_irq_handler+0x2d8>)
100005c4:	4bad      	ldr	r3, [pc, #692]	@ (1000087c <alarm_pool_irq_handler+0x2dc>)
100005c6:	bf08      	it	eq
100005c8:	4dad      	ldreq	r5, [pc, #692]	@ (10000880 <alarm_pool_irq_handler+0x2e0>)
100005ca:	eb0b 0282 	add.w	r2, fp, r2, lsl #2
100005ce:	f853 6022 	ldr.w	r6, [r3, r2, lsl #2]
100005d2:	fa01 f20b 	lsl.w	r2, r1, fp
100005d6:	f505 5341 	add.w	r3, r5, #12352	@ 0x3040
100005da:	ed9f 8ba5 	vldr	d8, [pc, #660]	@ 10000870 <alarm_pool_irq_handler+0x2d0>
100005de:	9201      	str	r2, [sp, #4]
100005e0:	605a      	str	r2, [r3, #4]
100005e2:	e031      	b.n	10000648 <alarm_pool_irq_handler+0xa8>
100005e4:	88b3      	ldrh	r3, [r6, #4]
100005e6:	041b      	lsls	r3, r3, #16
100005e8:	f140 8095 	bpl.w	10000716 <alarm_pool_irq_handler+0x176>
100005ec:	79b3      	ldrb	r3, [r6, #6]
100005ee:	2b00      	cmp	r3, #0
100005f0:	f040 80df 	bne.w	100007b2 <alarm_pool_irq_handler+0x212>
100005f4:	f9b6 3008 	ldrsh.w	r3, [r6, #8]
100005f8:	2b00      	cmp	r3, #0
100005fa:	9300      	str	r3, [sp, #0]
100005fc:	f2c0 8105 	blt.w	1000080a <alarm_pool_irq_handler+0x26a>
10000600:	461a      	mov	r2, r3
10000602:	6973      	ldr	r3, [r6, #20]
10000604:	eb02 0442 	add.w	r4, r2, r2, lsl #1
10000608:	eb03 03c4 	add.w	r3, r3, r4, lsl #3
1000060c:	e9d3 4702 	ldrd	r4, r7, [r3, #8]
10000610:	f1b7 3fff 	cmp.w	r7, #4294967295	@ 0xffffffff
10000614:	bf08      	it	eq
10000616:	f1b4 3fff 	cmpeq.w	r4, #4294967295	@ 0xffffffff
1000061a:	d00e      	beq.n	1000063a <alarm_pool_irq_handler+0x9a>
1000061c:	eb05 018b 	add.w	r1, r5, fp, lsl #2
10000620:	6aab      	ldr	r3, [r5, #40]	@ 0x28
10000622:	690a      	ldr	r2, [r1, #16]
10000624:	1ad2      	subs	r2, r2, r3
10000626:	1ae3      	subs	r3, r4, r3
10000628:	4293      	cmp	r3, r2
1000062a:	d305      	bcc.n	10000638 <alarm_pool_irq_handler+0x98>
1000062c:	2301      	movs	r3, #1
1000062e:	6a2a      	ldr	r2, [r5, #32]
10000630:	fa03 f30b 	lsl.w	r3, r3, fp
10000634:	4213      	tst	r3, r2
10000636:	d100      	bne.n	1000063a <alarm_pool_irq_handler+0x9a>
10000638:	610c      	str	r4, [r1, #16]
1000063a:	4628      	mov	r0, r5
1000063c:	f000 fbd0 	bl	10000de0 <timer_time_us_64>
10000640:	42a0      	cmp	r0, r4
10000642:	41b9      	sbcs	r1, r7
10000644:	f2c0 80e1 	blt.w	1000080a <alarm_pool_irq_handler+0x26a>
10000648:	f9b6 3008 	ldrsh.w	r3, [r6, #8]
1000064c:	9a01      	ldr	r2, [sp, #4]
1000064e:	2b00      	cmp	r3, #0
10000650:	9300      	str	r3, [sp, #0]
10000652:	63ea      	str	r2, [r5, #60]	@ 0x3c
10000654:	dbc6      	blt.n	100005e4 <alarm_pool_irq_handler+0x44>
10000656:	f8d6 8014 	ldr.w	r8, [r6, #20]
1000065a:	eb03 0943 	add.w	r9, r3, r3, lsl #1
1000065e:	4628      	mov	r0, r5
10000660:	eb08 07c9 	add.w	r7, r8, r9, lsl #3
10000664:	e9d7 4a02 	ldrd	r4, sl, [r7, #8]
10000668:	f000 fbba 	bl	10000de0 <timer_time_us_64>
1000066c:	42a0      	cmp	r0, r4
1000066e:	eb71 010a 	sbcs.w	r1, r1, sl
10000672:	dbb7      	blt.n	100005e4 <alarm_pool_irq_handler+0x44>
10000674:	f1ba 0f00 	cmp.w	sl, #0
10000678:	f2c0 80cd 	blt.w	10000816 <alarm_pool_irq_handler+0x276>
1000067c:	e9d7 3104 	ldrd	r3, r1, [r7, #16]
10000680:	4a80      	ldr	r2, [pc, #512]	@ (10000884 <alarm_pool_irq_handler+0x2e4>)
10000682:	4293      	cmp	r3, r2
10000684:	f000 8100 	beq.w	10000888 <alarm_pool_irq_handler+0x2e8>
10000688:	887a      	ldrh	r2, [r7, #2]
1000068a:	f9b6 0008 	ldrsh.w	r0, [r6, #8]
1000068e:	b292      	uxth	r2, r2
10000690:	ea42 4000 	orr.w	r0, r2, r0, lsl #16
10000694:	4798      	blx	r3
10000696:	4602      	mov	r2, r0
10000698:	460b      	mov	r3, r1
1000069a:	ea52 0103 	orrs.w	r1, r2, r3
1000069e:	f000 80ba 	beq.w	10000816 <alarm_pool_irq_handler+0x276>
100006a2:	2b00      	cmp	r3, #0
100006a4:	f280 80d5 	bge.w	10000852 <alarm_pool_irq_handler+0x2b2>
100006a8:	ebb4 0e02 	subs.w	lr, r4, r2
100006ac:	eb6a 0a03 	sbc.w	sl, sl, r3
100006b0:	f938 3039 	ldrsh.w	r3, [r8, r9, lsl #3]
100006b4:	e9c7 ea02 	strd	lr, sl, [r7, #8]
100006b8:	2b00      	cmp	r3, #0
100006ba:	db93      	blt.n	100005e4 <alarm_pool_irq_handler+0x44>
100006bc:	6971      	ldr	r1, [r6, #20]
100006be:	eb03 0243 	add.w	r2, r3, r3, lsl #1
100006c2:	eb01 02c2 	add.w	r2, r1, r2, lsl #3
100006c6:	e9d2 7002 	ldrd	r7, r0, [r2, #8]
100006ca:	45be      	cmp	lr, r7
100006cc:	eb7a 0c00 	sbcs.w	ip, sl, r0
100006d0:	ea4f 0243 	mov.w	r2, r3, lsl #1
100006d4:	db86      	blt.n	100005e4 <alarm_pool_irq_handler+0x44>
100006d6:	46b4      	mov	ip, r6
100006d8:	f82c 3f08 	strh.w	r3, [ip, #8]!
100006dc:	e006      	b.n	100006ec <alarm_pool_irq_handler+0x14c>
100006de:	eb03 0043 	add.w	r0, r3, r3, lsl #1
100006e2:	eb01 00c0 	add.w	r0, r1, r0, lsl #3
100006e6:	005a      	lsls	r2, r3, #1
100006e8:	e9d0 7002 	ldrd	r7, r0, [r0, #8]
100006ec:	45be      	cmp	lr, r7
100006ee:	441a      	add	r2, r3
100006f0:	eb7a 0000 	sbcs.w	r0, sl, r0
100006f4:	eb01 04c2 	add.w	r4, r1, r2, lsl #3
100006f8:	db04      	blt.n	10000704 <alarm_pool_irq_handler+0x164>
100006fa:	f931 3032 	ldrsh.w	r3, [r1, r2, lsl #3]
100006fe:	46a4      	mov	ip, r4
10000700:	2b00      	cmp	r3, #0
10000702:	daec      	bge.n	100006de <alarm_pool_irq_handler+0x13e>
10000704:	f828 3039 	strh.w	r3, [r8, r9, lsl #3]
10000708:	9b00      	ldr	r3, [sp, #0]
1000070a:	f8ac 3000 	strh.w	r3, [ip]
1000070e:	88b3      	ldrh	r3, [r6, #4]
10000710:	041b      	lsls	r3, r3, #16
10000712:	f53f af6b 	bmi.w	100005ec <alarm_pool_irq_handler+0x4c>
10000716:	6933      	ldr	r3, [r6, #16]
10000718:	f3ef 8210 	mrs	r2, PRIMASK
1000071c:	b672      	cpsid	i
1000071e:	e8d3 0fcf 	ldaexb	r0, [r3]
10000722:	2101      	movs	r1, #1
10000724:	2800      	cmp	r0, #0
10000726:	d1fa      	bne.n	1000071e <alarm_pool_irq_handler+0x17e>
10000728:	e8c3 1f40 	strexb	r0, r1, [r3]
1000072c:	2800      	cmp	r0, #0
1000072e:	d1f6      	bne.n	1000071e <alarm_pool_irq_handler+0x17e>
10000730:	f3bf 8f5f 	dmb	sy
10000734:	f64f 74ff 	movw	r4, #65535	@ 0xffff
10000738:	88b0      	ldrh	r0, [r6, #4]
1000073a:	2300      	movs	r3, #0
1000073c:	6931      	ldr	r1, [r6, #16]
1000073e:	b200      	sxth	r0, r0
10000740:	80b4      	strh	r4, [r6, #4]
10000742:	e8c1 3f8f 	stlb	r3, [r1]
10000746:	f382 8810 	msr	PRIMASK, r2
1000074a:	4298      	cmp	r0, r3
1000074c:	f6ff af4e 	blt.w	100005ec <alarm_pool_irq_handler+0x4c>
10000750:	4607      	mov	r7, r0
10000752:	46a9      	mov	r9, r5
10000754:	6974      	ldr	r4, [r6, #20]
10000756:	f106 0808 	add.w	r8, r6, #8
1000075a:	eb07 0e47 	add.w	lr, r7, r7, lsl #1
1000075e:	eb04 03ce 	add.w	r3, r4, lr, lsl #3
10000762:	e9d3 5002 	ldrd	r5, r0, [r3, #8]
10000766:	f9b6 3008 	ldrsh.w	r3, [r6, #8]
1000076a:	46c4      	mov	ip, r8
1000076c:	2b00      	cmp	r3, #0
1000076e:	db13      	blt.n	10000798 <alarm_pool_irq_handler+0x1f8>
10000770:	46b2      	mov	sl, r6
10000772:	9700      	str	r7, [sp, #0]
10000774:	e004      	b.n	10000780 <alarm_pool_irq_handler+0x1e0>
10000776:	f934 3036 	ldrsh.w	r3, [r4, r6, lsl #3]
1000077a:	4694      	mov	ip, r2
1000077c:	2b00      	cmp	r3, #0
1000077e:	db09      	blt.n	10000794 <alarm_pool_irq_handler+0x1f4>
10000780:	eb03 0643 	add.w	r6, r3, r3, lsl #1
10000784:	eb04 02c6 	add.w	r2, r4, r6, lsl #3
10000788:	e9d2 7102 	ldrd	r7, r1, [r2, #8]
1000078c:	42bd      	cmp	r5, r7
1000078e:	eb70 0101 	sbcs.w	r1, r0, r1
10000792:	daf0      	bge.n	10000776 <alarm_pool_irq_handler+0x1d6>
10000794:	4656      	mov	r6, sl
10000796:	9f00      	ldr	r7, [sp, #0]
10000798:	f8ac 7000 	strh.w	r7, [ip]
1000079c:	f934 703e 	ldrsh.w	r7, [r4, lr, lsl #3]
100007a0:	f824 303e 	strh.w	r3, [r4, lr, lsl #3]
100007a4:	2f00      	cmp	r7, #0
100007a6:	dad8      	bge.n	1000075a <alarm_pool_irq_handler+0x1ba>
100007a8:	79b3      	ldrb	r3, [r6, #6]
100007aa:	464d      	mov	r5, r9
100007ac:	2b00      	cmp	r3, #0
100007ae:	f43f af21 	beq.w	100005f4 <alarm_pool_irq_handler+0x54>
100007b2:	2300      	movs	r3, #0
100007b4:	71b3      	strb	r3, [r6, #6]
100007b6:	f9b6 3008 	ldrsh.w	r3, [r6, #8]
100007ba:	f106 0e08 	add.w	lr, r6, #8
100007be:	1c5f      	adds	r7, r3, #1
100007c0:	9300      	str	r3, [sp, #0]
100007c2:	d022      	beq.n	1000080a <alarm_pool_irq_handler+0x26a>
100007c4:	469c      	mov	ip, r3
100007c6:	6970      	ldr	r0, [r6, #20]
100007c8:	e002      	b.n	100007d0 <alarm_pool_irq_handler+0x230>
100007ca:	468e      	mov	lr, r1
100007cc:	1c5a      	adds	r2, r3, #1
100007ce:	d016      	beq.n	100007fe <alarm_pool_irq_handler+0x25e>
100007d0:	eb03 0243 	add.w	r2, r3, r3, lsl #1
100007d4:	eb00 01c2 	add.w	r1, r0, r2, lsl #3
100007d8:	884c      	ldrh	r4, [r1, #2]
100007da:	461f      	mov	r7, r3
100007dc:	0424      	lsls	r4, r4, #16
100007de:	f930 3032 	ldrsh.w	r3, [r0, r2, lsl #3]
100007e2:	d5f2      	bpl.n	100007ca <alarm_pool_irq_handler+0x22a>
100007e4:	45bc      	cmp	ip, r7
100007e6:	ed81 8b02 	vstr	d8, [r1, #8]
100007ea:	d0ef      	beq.n	100007cc <alarm_pool_irq_handler+0x22c>
100007ec:	f8ae 3000 	strh.w	r3, [lr]
100007f0:	8931      	ldrh	r1, [r6, #8]
100007f2:	46bc      	mov	ip, r7
100007f4:	f820 1032 	strh.w	r1, [r0, r2, lsl #3]
100007f8:	1c5a      	adds	r2, r3, #1
100007fa:	8137      	strh	r7, [r6, #8]
100007fc:	d1e8      	bne.n	100007d0 <alarm_pool_irq_handler+0x230>
100007fe:	4663      	mov	r3, ip
10000800:	2b00      	cmp	r3, #0
10000802:	f8cd c000 	str.w	ip, [sp]
10000806:	f6bf aefb 	bge.w	10000600 <alarm_pool_irq_handler+0x60>
1000080a:	bf40      	sev
1000080c:	b005      	add	sp, #20
1000080e:	ecbd 8b02 	vpop	{d8}
10000812:	e8bd 8ff0 	ldmia.w	sp!, {r4, r5, r6, r7, r8, r9, sl, fp, pc}
10000816:	f838 3039 	ldrh.w	r3, [r8, r9, lsl #3]
1000081a:	8133      	strh	r3, [r6, #8]
1000081c:	6933      	ldr	r3, [r6, #16]
1000081e:	f3ef 8210 	mrs	r2, PRIMASK
10000822:	b672      	cpsid	i
10000824:	e8d3 0fcf 	ldaexb	r0, [r3]
10000828:	2101      	movs	r1, #1
1000082a:	2800      	cmp	r0, #0
1000082c:	d1fa      	bne.n	10000824 <alarm_pool_irq_handler+0x284>
1000082e:	e8c3 1f40 	strexb	r0, r1, [r3]
10000832:	2800      	cmp	r0, #0
10000834:	d1f6      	bne.n	10000824 <alarm_pool_irq_handler+0x284>
10000836:	f3bf 8f5f 	dmb	sy
1000083a:	8873      	ldrh	r3, [r6, #2]
1000083c:	6931      	ldr	r1, [r6, #16]
1000083e:	f828 3039 	strh.w	r3, [r8, r9, lsl #3]
10000842:	9b00      	ldr	r3, [sp, #0]
10000844:	8073      	strh	r3, [r6, #2]
10000846:	2300      	movs	r3, #0
10000848:	e8c1 3f8f 	stlb	r3, [r1]
1000084c:	f382 8810 	msr	PRIMASK, r2
10000850:	e6c8      	b.n	100005e4 <alarm_pool_irq_handler+0x44>
10000852:	4628      	mov	r0, r5
10000854:	e9cd 2302 	strd	r2, r3, [sp, #8]
10000858:	f000 fac2 	bl	10000de0 <timer_time_us_64>
1000085c:	9a02      	ldr	r2, [sp, #8]
1000085e:	9b03      	ldr	r3, [sp, #12]
10000860:	eb10 0e02 	adds.w	lr, r0, r2
10000864:	eb43 0a01 	adc.w	sl, r3, r1
10000868:	e722      	b.n	100006b0 <alarm_pool_irq_handler+0x110>
1000086a:	bf00      	nop
1000086c:	f3af 8000 	nop.w
10000870:	ffffffff 	.word	0xffffffff
10000874:	ffffffff 	.word	0xffffffff
10000878:	400b8000 	.word	0x400b8000
1000087c:	20000444 	.word	0x20000444
10000880:	400b0000 	.word	0x400b0000
10000884:	100005a1 	.word	0x100005a1
10000888:	4608      	mov	r0, r1
1000088a:	690b      	ldr	r3, [r1, #16]
1000088c:	9102      	str	r1, [sp, #8]
1000088e:	4798      	blx	r3
10000890:	2800      	cmp	r0, #0
10000892:	d0c0      	beq.n	10000816 <alarm_pool_irq_handler+0x276>
10000894:	9902      	ldr	r1, [sp, #8]
10000896:	e9d1 2300 	ldrd	r2, r3, [r1]
1000089a:	e6fe      	b.n	1000069a <alarm_pool_irq_handler+0xfa>

1000089c <runtime_init_default_alarm_pool>:
1000089c:	e92d 4ff8 	stmdb	sp!, {r3, r4, r5, r6, r7, r8, r9, sl, fp, lr}
100008a0:	4c36      	ldr	r4, [pc, #216]	@ (1000097c <runtime_init_default_alarm_pool+0xe0>)
100008a2:	6925      	ldr	r5, [r4, #16]
100008a4:	b12d      	cbz	r5, 100008b2 <runtime_init_default_alarm_pool+0x16>
100008a6:	e8bd 4ff8 	ldmia.w	sp!, {r3, r4, r5, r6, r7, r8, r9, sl, fp, lr}
100008aa:	210a      	movs	r1, #10
100008ac:	4834      	ldr	r0, [pc, #208]	@ (10000980 <runtime_init_default_alarm_pool+0xe4>)
100008ae:	f7ff be2b 	b.w	10000508 <lock_init>
100008b2:	f8df 80e4 	ldr.w	r8, [pc, #228]	@ 10000998 <runtime_init_default_alarm_pool+0xfc>
100008b6:	2103      	movs	r1, #3
100008b8:	4640      	mov	r0, r8
100008ba:	f000 fa7f 	bl	10000dbc <timer_hardware_alarm_claim>
100008be:	2603      	movs	r6, #3
100008c0:	f8c4 800c 	str.w	r8, [r4, #12]
100008c4:	f7ff fd9a 	bl	100003fc <next_striped_spin_lock_num>
100008c8:	f04f 4c50 	mov.w	ip, #3489660928	@ 0xd0000000
100008cc:	4b2d      	ldr	r3, [pc, #180]	@ (10000984 <runtime_init_default_alarm_pool+0xe8>)
100008ce:	7026      	strb	r6, [r4, #0]
100008d0:	4403      	add	r3, r0
100008d2:	6123      	str	r3, [r4, #16]
100008d4:	f8dc 3000 	ldr.w	r3, [ip]
100008d8:	210f      	movs	r1, #15
100008da:	7063      	strb	r3, [r4, #1]
100008dc:	6963      	ldr	r3, [r4, #20]
100008de:	8061      	strh	r1, [r4, #2]
100008e0:	831d      	strh	r5, [r3, #24]
100008e2:	f04f 0504 	mov.w	r5, #4
100008e6:	f8a3 5078 	strh.w	r5, [r3, #120]	@ 0x78
100008ea:	f04f 0505 	mov.w	r5, #5
100008ee:	f8a3 5090 	strh.w	r5, [r3, #144]	@ 0x90
100008f2:	f04f 0506 	mov.w	r5, #6
100008f6:	f8a3 50a8 	strh.w	r5, [r3, #168]	@ 0xa8
100008fa:	f04f 0507 	mov.w	r5, #7
100008fe:	210e      	movs	r1, #14
10000900:	f64f 72ff 	movw	r2, #65535	@ 0xffff
10000904:	2708      	movs	r7, #8
10000906:	f04f 0e0a 	mov.w	lr, #10
1000090a:	f8a3 50c0 	strh.w	r5, [r3, #192]	@ 0xc0
1000090e:	f04f 0901 	mov.w	r9, #1
10000912:	f04f 0c0c 	mov.w	ip, #12
10000916:	f04f 0b02 	mov.w	fp, #2
1000091a:	f04f 0a09 	mov.w	sl, #9
1000091e:	200d      	movs	r0, #13
10000920:	f04f 050b 	mov.w	r5, #11
10000924:	f8a3 1168 	strh.w	r1, [r3, #360]	@ 0x168
10000928:	4917      	ldr	r1, [pc, #92]	@ (10000988 <runtime_init_default_alarm_pool+0xec>)
1000092a:	80a2      	strh	r2, [r4, #4]
1000092c:	f8a3 e108 	strh.w	lr, [r3, #264]	@ 0x108
10000930:	60a1      	str	r1, [r4, #8]
10000932:	f8a3 b048 	strh.w	fp, [r3, #72]	@ 0x48
10000936:	f8a3 a0f0 	strh.w	sl, [r3, #240]	@ 0xf0
1000093a:	f8a3 5120 	strh.w	r5, [r3, #288]	@ 0x120
1000093e:	f8a3 c138 	strh.w	ip, [r3, #312]	@ 0x138
10000942:	f8a3 0150 	strh.w	r0, [r3, #336]	@ 0x150
10000946:	f8a3 9030 	strh.w	r9, [r3, #48]	@ 0x30
1000094a:	f8a3 6060 	strh.w	r6, [r3, #96]	@ 0x60
1000094e:	f8a3 70d8 	strh.w	r7, [r3, #216]	@ 0xd8
10000952:	801a      	strh	r2, [r3, #0]
10000954:	4b0d      	ldr	r3, [pc, #52]	@ (1000098c <runtime_init_default_alarm_pool+0xf0>)
10000956:	4630      	mov	r0, r6
10000958:	f8c8 7020 	str.w	r7, [r8, #32]
1000095c:	490c      	ldr	r1, [pc, #48]	@ (10000990 <runtime_init_default_alarm_pool+0xf4>)
1000095e:	60dc      	str	r4, [r3, #12]
10000960:	f7ff fda2 	bl	100004a8 <irq_set_exclusive_handler>
10000964:	4649      	mov	r1, r9
10000966:	4630      	mov	r0, r6
10000968:	f7ff fd88 	bl	1000047c <irq_set_enabled>
1000096c:	4b09      	ldr	r3, [pc, #36]	@ (10000994 <runtime_init_default_alarm_pool+0xf8>)
1000096e:	210a      	movs	r1, #10
10000970:	641f      	str	r7, [r3, #64]	@ 0x40
10000972:	4803      	ldr	r0, [pc, #12]	@ (10000980 <runtime_init_default_alarm_pool+0xe4>)
10000974:	e8bd 4ff8 	ldmia.w	sp!, {r3, r4, r5, r6, r7, r8, r9, sl, fp, lr}
10000978:	f7ff bdc6 	b.w	10000508 <lock_init>
1000097c:	2000022c 	.word	0x2000022c
10000980:	20000464 	.word	0x20000464
10000984:	200003d0 	.word	0x200003d0
10000988:	0010ffff 	.word	0x0010ffff
1000098c:	20000444 	.word	0x20000444
10000990:	100005a1 	.word	0x100005a1
10000994:	400b2000 	.word	0x400b2000
10000998:	400b0000 	.word	0x400b0000

1000099c <alarm_pool_get_default>:
1000099c:	4800      	ldr	r0, [pc, #0]	@ (100009a0 <alarm_pool_get_default+0x4>)
1000099e:	4770      	bx	lr
100009a0:	2000022c 	.word	0x2000022c

100009a4 <alarm_pool_add_alarm_at_force_in_context>:
100009a4:	4601      	mov	r1, r0
100009a6:	b5f0      	push	{r4, r5, r6, r7, lr}
100009a8:	6900      	ldr	r0, [r0, #16]
100009aa:	f3ef 8710 	mrs	r7, PRIMASK
100009ae:	b672      	cpsid	i
100009b0:	e8d0 5fcf 	ldaexb	r5, [r0]
100009b4:	2401      	movs	r4, #1
100009b6:	2d00      	cmp	r5, #0
100009b8:	d1fa      	bne.n	100009b0 <alarm_pool_add_alarm_at_force_in_context+0xc>
100009ba:	e8c0 4f45 	strexb	r5, r4, [r0]
100009be:	2d00      	cmp	r5, #0
100009c0:	d1f6      	bne.n	100009b0 <alarm_pool_add_alarm_at_force_in_context+0xc>
100009c2:	f3bf 8f5f 	dmb	sy
100009c6:	f9b1 e002 	ldrsh.w	lr, [r1, #2]
100009ca:	694c      	ldr	r4, [r1, #20]
100009cc:	eb0e 0c4e 	add.w	ip, lr, lr, lsl #1
100009d0:	f1be 0f00 	cmp.w	lr, #0
100009d4:	ea4f 05cc 	mov.w	r5, ip, lsl #3
100009d8:	6908      	ldr	r0, [r1, #16]
100009da:	eb04 0ccc 	add.w	ip, r4, ip, lsl #3
100009de:	db3c      	blt.n	10000a5a <alarm_pool_add_alarm_at_force_in_context+0xb6>
100009e0:	5b66      	ldrh	r6, [r4, r5]
100009e2:	804e      	strh	r6, [r1, #2]
100009e4:	2600      	movs	r6, #0
100009e6:	e8c0 6f8f 	stlb	r6, [r0]
100009ea:	f387 8810 	msr	PRIMASK, r7
100009ee:	f8bc 0002 	ldrh.w	r0, [ip, #2]
100009f2:	e9cc 2302 	strd	r2, r3, [ip, #8]
100009f6:	3001      	adds	r0, #1
100009f8:	f3c0 000e 	ubfx	r0, r0, #0, #15
100009fc:	2801      	cmp	r0, #1
100009fe:	bf38      	it	cc
10000a00:	2001      	movcc	r0, #1
10000a02:	9b05      	ldr	r3, [sp, #20]
10000a04:	f8ac 0002 	strh.w	r0, [ip, #2]
10000a08:	f8cc 3010 	str.w	r3, [ip, #16]
10000a0c:	9b06      	ldr	r3, [sp, #24]
10000a0e:	ea40 400e 	orr.w	r0, r0, lr, lsl #16
10000a12:	f8cc 3014 	str.w	r3, [ip, #20]
10000a16:	690b      	ldr	r3, [r1, #16]
10000a18:	f3ef 8210 	mrs	r2, PRIMASK
10000a1c:	b672      	cpsid	i
10000a1e:	e8d3 cfcf 	ldaexb	ip, [r3]
10000a22:	2701      	movs	r7, #1
10000a24:	f1bc 0f00 	cmp.w	ip, #0
10000a28:	d1f9      	bne.n	10000a1e <alarm_pool_add_alarm_at_force_in_context+0x7a>
10000a2a:	e8c3 7f4c 	strexb	ip, r7, [r3]
10000a2e:	f1bc 0f00 	cmp.w	ip, #0
10000a32:	d1f4      	bne.n	10000a1e <alarm_pool_add_alarm_at_force_in_context+0x7a>
10000a34:	f3bf 8f5f 	dmb	sy
10000a38:	888b      	ldrh	r3, [r1, #4]
10000a3a:	5363      	strh	r3, [r4, r5]
10000a3c:	f8a1 e004 	strh.w	lr, [r1, #4]
10000a40:	690b      	ldr	r3, [r1, #16]
10000a42:	e8c3 6f8f 	stlb	r6, [r3]
10000a46:	f382 8810 	msr	PRIMASK, r2
10000a4a:	2201      	movs	r2, #1
10000a4c:	68cb      	ldr	r3, [r1, #12]
10000a4e:	7809      	ldrb	r1, [r1, #0]
10000a50:	f503 5301 	add.w	r3, r3, #8256	@ 0x2040
10000a54:	408a      	lsls	r2, r1
10000a56:	605a      	str	r2, [r3, #4]
10000a58:	bdf0      	pop	{r4, r5, r6, r7, pc}
10000a5a:	2300      	movs	r3, #0
10000a5c:	e8c0 3f8f 	stlb	r3, [r0]
10000a60:	f387 8810 	msr	PRIMASK, r7
10000a64:	f04f 30ff 	mov.w	r0, #4294967295	@ 0xffffffff
10000a68:	bdf0      	pop	{r4, r5, r6, r7, pc}
10000a6a:	bf00      	nop

10000a6c <alarm_pool_cancel_alarm>:
10000a6c:	4603      	mov	r3, r0
10000a6e:	8940      	ldrh	r0, [r0, #10]
10000a70:	ebb0 4f21 	cmp.w	r0, r1, asr #16
10000a74:	dd37      	ble.n	10000ae6 <alarm_pool_cancel_alarm+0x7a>
10000a76:	6958      	ldr	r0, [r3, #20]
10000a78:	140a      	asrs	r2, r1, #16
10000a7a:	eb02 0242 	add.w	r2, r2, r2, lsl #1
10000a7e:	b510      	push	{r4, lr}
10000a80:	eb00 00c2 	add.w	r0, r0, r2, lsl #3
10000a84:	691c      	ldr	r4, [r3, #16]
10000a86:	f3ef 8c10 	mrs	ip, PRIMASK
10000a8a:	b672      	cpsid	i
10000a8c:	e8d4 efcf 	ldaexb	lr, [r4]
10000a90:	2201      	movs	r2, #1
10000a92:	f1be 0f00 	cmp.w	lr, #0
10000a96:	d1f9      	bne.n	10000a8c <alarm_pool_cancel_alarm+0x20>
10000a98:	e8c4 2f4e 	strexb	lr, r2, [r4]
10000a9c:	f1be 0f00 	cmp.w	lr, #0
10000aa0:	d1f4      	bne.n	10000a8c <alarm_pool_cancel_alarm+0x20>
10000aa2:	f3bf 8f5f 	dmb	sy
10000aa6:	8842      	ldrh	r2, [r0, #2]
10000aa8:	b289      	uxth	r1, r1
10000aaa:	b292      	uxth	r2, r2
10000aac:	428a      	cmp	r2, r1
10000aae:	d007      	beq.n	10000ac0 <alarm_pool_cancel_alarm+0x54>
10000ab0:	2200      	movs	r2, #0
10000ab2:	691b      	ldr	r3, [r3, #16]
10000ab4:	e8c3 2f8f 	stlb	r2, [r3]
10000ab8:	f38c 8810 	msr	PRIMASK, ip
10000abc:	2000      	movs	r0, #0
10000abe:	bd10      	pop	{r4, pc}
10000ac0:	f442 4200 	orr.w	r2, r2, #32768	@ 0x8000
10000ac4:	8042      	strh	r2, [r0, #2]
10000ac6:	2101      	movs	r1, #1
10000ac8:	2200      	movs	r2, #0
10000aca:	6918      	ldr	r0, [r3, #16]
10000acc:	7199      	strb	r1, [r3, #6]
10000ace:	e8c0 2f8f 	stlb	r2, [r0]
10000ad2:	f38c 8810 	msr	PRIMASK, ip
10000ad6:	781c      	ldrb	r4, [r3, #0]
10000ad8:	68da      	ldr	r2, [r3, #12]
10000ada:	4608      	mov	r0, r1
10000adc:	f502 5301 	add.w	r3, r2, #8256	@ 0x2040
10000ae0:	40a1      	lsls	r1, r4
10000ae2:	6059      	str	r1, [r3, #4]
10000ae4:	bd10      	pop	{r4, pc}
10000ae6:	2000      	movs	r0, #0
10000ae8:	4770      	bx	lr
10000aea:	bf00      	nop

10000aec <sleep_ms>:
10000aec:	e92d 41f0 	stmdb	sp!, {r4, r5, r6, r7, r8, lr}
10000af0:	b082      	sub	sp, #8
10000af2:	4606      	mov	r6, r0
10000af4:	f000 f97c 	bl	10000df0 <time_us_64>
10000af8:	f44f 737a 	mov.w	r3, #1000	@ 0x3e8
10000afc:	4604      	mov	r4, r0
10000afe:	f04f 30ff 	mov.w	r0, #4294967295	@ 0xffffffff
10000b02:	f06f 4200 	mvn.w	r2, #2147483648	@ 0x80000000
10000b06:	fbe6 4103 	umlal	r4, r1, r6, r3
10000b0a:	42a0      	cmp	r0, r4
10000b0c:	eb72 0301 	sbcs.w	r3, r2, r1
10000b10:	bf3a      	itte	cc
10000b12:	4604      	movcc	r4, r0
10000b14:	4615      	movcc	r5, r2
10000b16:	460d      	movcs	r5, r1
10000b18:	1fa6      	subs	r6, r4, #6
10000b1a:	f145 37ff 	adc.w	r7, r5, #4294967295	@ 0xffffffff
10000b1e:	42b4      	cmp	r4, r6
10000b20:	eb75 0307 	sbcs.w	r3, r5, r7
10000b24:	bf3c      	itt	cc
10000b26:	2600      	movcc	r6, #0
10000b28:	4637      	movcc	r7, r6
10000b2a:	f000 f961 	bl	10000df0 <time_us_64>
10000b2e:	1a30      	subs	r0, r6, r0
10000b30:	eb67 0101 	sbc.w	r1, r7, r1
10000b34:	2801      	cmp	r0, #1
10000b36:	f171 0100 	sbcs.w	r1, r1, #0
10000b3a:	da06      	bge.n	10000b4a <sleep_ms+0x5e>
10000b3c:	4620      	mov	r0, r4
10000b3e:	4629      	mov	r1, r5
10000b40:	b002      	add	sp, #8
10000b42:	e8bd 41f0 	ldmia.w	sp!, {r4, r5, r6, r7, r8, lr}
10000b46:	f000 b95d 	b.w	10000e04 <busy_wait_until>
10000b4a:	f000 f951 	bl	10000df0 <time_us_64>
10000b4e:	4286      	cmp	r6, r0
10000b50:	eb67 0101 	sbc.w	r1, r7, r1
10000b54:	2900      	cmp	r1, #0
10000b56:	db0a      	blt.n	10000b6e <sleep_ms+0x82>
10000b58:	2100      	movs	r1, #0
10000b5a:	4b17      	ldr	r3, [pc, #92]	@ (10000bb8 <sleep_ms+0xcc>)
10000b5c:	4632      	mov	r2, r6
10000b5e:	9300      	str	r3, [sp, #0]
10000b60:	4816      	ldr	r0, [pc, #88]	@ (10000bbc <sleep_ms+0xd0>)
10000b62:	463b      	mov	r3, r7
10000b64:	9101      	str	r1, [sp, #4]
10000b66:	f7ff ff1d 	bl	100009a4 <alarm_pool_add_alarm_at_force_in_context>
10000b6a:	3001      	adds	r0, #1
10000b6c:	d0e6      	beq.n	10000b3c <sleep_ms+0x50>
10000b6e:	f04f 0c00 	mov.w	ip, #0
10000b72:	4a13      	ldr	r2, [pc, #76]	@ (10000bc0 <sleep_ms+0xd4>)
10000b74:	4913      	ldr	r1, [pc, #76]	@ (10000bc4 <sleep_ms+0xd8>)
10000b76:	6a53      	ldr	r3, [r2, #36]	@ 0x24
10000b78:	429f      	cmp	r7, r3
10000b7a:	d804      	bhi.n	10000b86 <sleep_ms+0x9a>
10000b7c:	6a90      	ldr	r0, [r2, #40]	@ 0x28
10000b7e:	42b0      	cmp	r0, r6
10000b80:	d2dc      	bcs.n	10000b3c <sleep_ms+0x50>
10000b82:	429f      	cmp	r7, r3
10000b84:	d1da      	bne.n	10000b3c <sleep_ms+0x50>
10000b86:	680b      	ldr	r3, [r1, #0]
10000b88:	f3ef 8010 	mrs	r0, PRIMASK
10000b8c:	b672      	cpsid	i
10000b8e:	e8d3 8fcf 	ldaexb	r8, [r3]
10000b92:	f05f 0e01 	movs.w	lr, #1
10000b96:	f1b8 0f00 	cmp.w	r8, #0
10000b9a:	d1f8      	bne.n	10000b8e <sleep_ms+0xa2>
10000b9c:	e8c3 ef48 	strexb	r8, lr, [r3]
10000ba0:	f1b8 0f00 	cmp.w	r8, #0
10000ba4:	d1f3      	bne.n	10000b8e <sleep_ms+0xa2>
10000ba6:	f3bf 8f5f 	dmb	sy
10000baa:	680b      	ldr	r3, [r1, #0]
10000bac:	e8c3 cf8f 	stlb	ip, [r3]
10000bb0:	f380 8810 	msr	PRIMASK, r0
10000bb4:	bf20      	wfe
10000bb6:	e7de      	b.n	10000b76 <sleep_ms+0x8a>
10000bb8:	10000561 	.word	0x10000561
10000bbc:	2000022c 	.word	0x2000022c
10000bc0:	400b0000 	.word	0x400b0000
10000bc4:	20000464 	.word	0x20000464

10000bc8 <best_effort_wfe_or_timeout>:
10000bc8:	e92d 43f0 	stmdb	sp!, {r4, r5, r6, r7, r8, r9, lr}
10000bcc:	4606      	mov	r6, r0
10000bce:	460d      	mov	r5, r1
10000bd0:	b083      	sub	sp, #12
10000bd2:	f3ef 8405 	mrs	r4, IPSR
10000bd6:	b2e4      	uxtb	r4, r4
10000bd8:	b13c      	cbz	r4, 10000bea <best_effort_wfe_or_timeout+0x22>
10000bda:	4b2d      	ldr	r3, [pc, #180]	@ (10000c90 <best_effort_wfe_or_timeout+0xc8>)
10000bdc:	6a5a      	ldr	r2, [r3, #36]	@ 0x24
10000bde:	42aa      	cmp	r2, r5
10000be0:	d21c      	bcs.n	10000c1c <best_effort_wfe_or_timeout+0x54>
10000be2:	2000      	movs	r0, #0
10000be4:	b003      	add	sp, #12
10000be6:	e8bd 83f0 	ldmia.w	sp!, {r4, r5, r6, r7, r8, r9, pc}
10000bea:	4f2a      	ldr	r7, [pc, #168]	@ (10000c94 <best_effort_wfe_or_timeout+0xcc>)
10000bec:	f8d7 900c 	ldr.w	r9, [r7, #12]
10000bf0:	f897 8000 	ldrb.w	r8, [r7]
10000bf4:	4648      	mov	r0, r9
10000bf6:	f000 f8f3 	bl	10000de0 <timer_time_us_64>
10000bfa:	f108 0804 	add.w	r8, r8, #4
10000bfe:	f859 3028 	ldr.w	r3, [r9, r8, lsl #2]
10000c02:	1a1b      	subs	r3, r3, r0
10000c04:	1a30      	subs	r0, r6, r0
10000c06:	eb65 0101 	sbc.w	r1, r5, r1
10000c0a:	4298      	cmp	r0, r3
10000c0c:	f171 0100 	sbcs.w	r1, r1, #0
10000c10:	db10      	blt.n	10000c34 <best_effort_wfe_or_timeout+0x6c>
10000c12:	bf20      	wfe
10000c14:	4b1e      	ldr	r3, [pc, #120]	@ (10000c90 <best_effort_wfe_or_timeout+0xc8>)
10000c16:	6a5a      	ldr	r2, [r3, #36]	@ 0x24
10000c18:	42aa      	cmp	r2, r5
10000c1a:	d3e2      	bcc.n	10000be2 <best_effort_wfe_or_timeout+0x1a>
10000c1c:	bf14      	ite	ne
10000c1e:	2401      	movne	r4, #1
10000c20:	2400      	moveq	r4, #0
10000c22:	6a9b      	ldr	r3, [r3, #40]	@ 0x28
10000c24:	42b3      	cmp	r3, r6
10000c26:	bf34      	ite	cc
10000c28:	4620      	movcc	r0, r4
10000c2a:	f044 0001 	orrcs.w	r0, r4, #1
10000c2e:	b003      	add	sp, #12
10000c30:	e8bd 83f0 	ldmia.w	sp!, {r4, r5, r6, r7, r8, r9, pc}
10000c34:	f000 f8dc 	bl	10000df0 <time_us_64>
10000c38:	4286      	cmp	r6, r0
10000c3a:	eb65 0101 	sbc.w	r1, r5, r1
10000c3e:	2900      	cmp	r1, #0
10000c40:	db14      	blt.n	10000c6c <best_effort_wfe_or_timeout+0xa4>
10000c42:	4b15      	ldr	r3, [pc, #84]	@ (10000c98 <best_effort_wfe_or_timeout+0xd0>)
10000c44:	4638      	mov	r0, r7
10000c46:	e9cd 3400 	strd	r3, r4, [sp]
10000c4a:	4632      	mov	r2, r6
10000c4c:	462b      	mov	r3, r5
10000c4e:	f7ff fea9 	bl	100009a4 <alarm_pool_add_alarm_at_force_in_context>
10000c52:	1e01      	subs	r1, r0, #0
10000c54:	dd0a      	ble.n	10000c6c <best_effort_wfe_or_timeout+0xa4>
10000c56:	4b0e      	ldr	r3, [pc, #56]	@ (10000c90 <best_effort_wfe_or_timeout+0xc8>)
10000c58:	6a5a      	ldr	r2, [r3, #36]	@ 0x24
10000c5a:	42aa      	cmp	r2, r5
10000c5c:	d316      	bcc.n	10000c8c <best_effort_wfe_or_timeout+0xc4>
10000c5e:	6a9b      	ldr	r3, [r3, #40]	@ 0x28
10000c60:	42b3      	cmp	r3, r6
10000c62:	d311      	bcc.n	10000c88 <best_effort_wfe_or_timeout+0xc0>
10000c64:	480b      	ldr	r0, [pc, #44]	@ (10000c94 <best_effort_wfe_or_timeout+0xcc>)
10000c66:	f7ff ff01 	bl	10000a6c <alarm_pool_cancel_alarm>
10000c6a:	e7b6      	b.n	10000bda <best_effort_wfe_or_timeout+0x12>
10000c6c:	4b08      	ldr	r3, [pc, #32]	@ (10000c90 <best_effort_wfe_or_timeout+0xc8>)
10000c6e:	6a5c      	ldr	r4, [r3, #36]	@ 0x24
10000c70:	42ac      	cmp	r4, r5
10000c72:	d3b6      	bcc.n	10000be2 <best_effort_wfe_or_timeout+0x1a>
10000c74:	1b64      	subs	r4, r4, r5
10000c76:	bf18      	it	ne
10000c78:	2401      	movne	r4, #1
10000c7a:	6a9b      	ldr	r3, [r3, #40]	@ 0x28
10000c7c:	42b3      	cmp	r3, r6
10000c7e:	bf34      	ite	cc
10000c80:	4620      	movcc	r0, r4
10000c82:	f044 0001 	orrcs.w	r0, r4, #1
10000c86:	e7ad      	b.n	10000be4 <best_effort_wfe_or_timeout+0x1c>
10000c88:	42aa      	cmp	r2, r5
10000c8a:	d1eb      	bne.n	10000c64 <best_effort_wfe_or_timeout+0x9c>
10000c8c:	bf20      	wfe
10000c8e:	e7e9      	b.n	10000c64 <best_effort_wfe_or_timeout+0x9c>
10000c90:	400b0000 	.word	0x400b0000
10000c94:	2000022c 	.word	0x2000022c
10000c98:	10000561 	.word	0x10000561

10000c9c <alarm_pool_add_repeating_timer_us>:
10000c9c:	e92d 41f0 	stmdb	sp!, {r4, r5, r6, r7, r8, lr}
10000ca0:	4604      	mov	r4, r0
10000ca2:	e9dd 1507 	ldrd	r1, r5, [sp, #28]
10000ca6:	ea52 0003 	orrs.w	r0, r2, r3
10000caa:	d072      	beq.n	10000d92 <alarm_pool_add_repeating_timer_us+0xf6>
10000cac:	2b00      	cmp	r3, #0
10000cae:	4616      	mov	r6, r2
10000cb0:	461f      	mov	r7, r3
10000cb2:	db73      	blt.n	10000d9c <alarm_pool_add_repeating_timer_us+0x100>
10000cb4:	9806      	ldr	r0, [sp, #24]
10000cb6:	e9c5 2300 	strd	r2, r3, [r5]
10000cba:	6128      	str	r0, [r5, #16]
10000cbc:	60ac      	str	r4, [r5, #8]
10000cbe:	6169      	str	r1, [r5, #20]
10000cc0:	f000 f896 	bl	10000df0 <time_us_64>
10000cc4:	f04f 32ff 	mov.w	r2, #4294967295	@ 0xffffffff
10000cc8:	f06f 4300 	mvn.w	r3, #2147483648	@ 0x80000000
10000ccc:	1980      	adds	r0, r0, r6
10000cce:	eb47 0701 	adc.w	r7, r7, r1
10000cd2:	4282      	cmp	r2, r0
10000cd4:	eb73 0107 	sbcs.w	r1, r3, r7
10000cd8:	bf3c      	itt	cc
10000cda:	461f      	movcc	r7, r3
10000cdc:	4610      	movcc	r0, r2
10000cde:	6923      	ldr	r3, [r4, #16]
10000ce0:	f3ef 8210 	mrs	r2, PRIMASK
10000ce4:	b672      	cpsid	i
10000ce6:	e8d3 6fcf 	ldaexb	r6, [r3]
10000cea:	2101      	movs	r1, #1
10000cec:	2e00      	cmp	r6, #0
10000cee:	d1fa      	bne.n	10000ce6 <alarm_pool_add_repeating_timer_us+0x4a>
10000cf0:	e8c3 1f46 	strexb	r6, r1, [r3]
10000cf4:	2e00      	cmp	r6, #0
10000cf6:	d1f6      	bne.n	10000ce6 <alarm_pool_add_repeating_timer_us+0x4a>
10000cf8:	f3bf 8f5f 	dmb	sy
10000cfc:	f9b4 1002 	ldrsh.w	r1, [r4, #2]
10000d00:	6966      	ldr	r6, [r4, #20]
10000d02:	eb01 0341 	add.w	r3, r1, r1, lsl #1
10000d06:	2900      	cmp	r1, #0
10000d08:	ea4f 0cc3 	mov.w	ip, r3, lsl #3
10000d0c:	f8d4 8010 	ldr.w	r8, [r4, #16]
10000d10:	eb06 03c3 	add.w	r3, r6, r3, lsl #3
10000d14:	db46      	blt.n	10000da4 <alarm_pool_add_repeating_timer_us+0x108>
10000d16:	f836 e00c 	ldrh.w	lr, [r6, ip]
10000d1a:	f8a4 e002 	strh.w	lr, [r4, #2]
10000d1e:	f04f 0e00 	mov.w	lr, #0
10000d22:	e8c8 ef8f 	stlb	lr, [r8]
10000d26:	f382 8810 	msr	PRIMASK, r2
10000d2a:	885a      	ldrh	r2, [r3, #2]
10000d2c:	e9c3 0702 	strd	r0, r7, [r3, #8]
10000d30:	3201      	adds	r2, #1
10000d32:	f3c2 020e 	ubfx	r2, r2, #0, #15
10000d36:	2a01      	cmp	r2, #1
10000d38:	bf38      	it	cc
10000d3a:	2201      	movcc	r2, #1
10000d3c:	481e      	ldr	r0, [pc, #120]	@ (10000db8 <alarm_pool_add_repeating_timer_us+0x11c>)
10000d3e:	805a      	strh	r2, [r3, #2]
10000d40:	615d      	str	r5, [r3, #20]
10000d42:	6118      	str	r0, [r3, #16]
10000d44:	ea42 4201 	orr.w	r2, r2, r1, lsl #16
10000d48:	6923      	ldr	r3, [r4, #16]
10000d4a:	f3ef 8010 	mrs	r0, PRIMASK
10000d4e:	b672      	cpsid	i
10000d50:	e8d3 8fcf 	ldaexb	r8, [r3]
10000d54:	2701      	movs	r7, #1
10000d56:	f1b8 0f00 	cmp.w	r8, #0
10000d5a:	d1f9      	bne.n	10000d50 <alarm_pool_add_repeating_timer_us+0xb4>
10000d5c:	e8c3 7f48 	strexb	r8, r7, [r3]
10000d60:	f1b8 0f00 	cmp.w	r8, #0
10000d64:	d1f4      	bne.n	10000d50 <alarm_pool_add_repeating_timer_us+0xb4>
10000d66:	f3bf 8f5f 	dmb	sy
10000d6a:	88a3      	ldrh	r3, [r4, #4]
10000d6c:	f826 300c 	strh.w	r3, [r6, ip]
10000d70:	80a1      	strh	r1, [r4, #4]
10000d72:	6923      	ldr	r3, [r4, #16]
10000d74:	e8c3 ef8f 	stlb	lr, [r3]
10000d78:	f380 8810 	msr	PRIMASK, r0
10000d7c:	2001      	movs	r0, #1
10000d7e:	7821      	ldrb	r1, [r4, #0]
10000d80:	68e3      	ldr	r3, [r4, #12]
10000d82:	fa00 f101 	lsl.w	r1, r0, r1
10000d86:	f503 5301 	add.w	r3, r3, #8256	@ 0x2040
10000d8a:	6059      	str	r1, [r3, #4]
10000d8c:	60ea      	str	r2, [r5, #12]
10000d8e:	e8bd 81f0 	ldmia.w	sp!, {r4, r5, r6, r7, r8, pc}
10000d92:	2601      	movs	r6, #1
10000d94:	2700      	movs	r7, #0
10000d96:	4632      	mov	r2, r6
10000d98:	463b      	mov	r3, r7
10000d9a:	e78b      	b.n	10000cb4 <alarm_pool_add_repeating_timer_us+0x18>
10000d9c:	4256      	negs	r6, r2
10000d9e:	eb63 0743 	sbc.w	r7, r3, r3, lsl #1
10000da2:	e787      	b.n	10000cb4 <alarm_pool_add_repeating_timer_us+0x18>
10000da4:	2000      	movs	r0, #0
10000da6:	e8c8 0f8f 	stlb	r0, [r8]
10000daa:	f382 8810 	msr	PRIMASK, r2
10000dae:	f04f 32ff 	mov.w	r2, #4294967295	@ 0xffffffff
10000db2:	60ea      	str	r2, [r5, #12]
10000db4:	e8bd 81f0 	ldmia.w	sp!, {r4, r5, r6, r7, r8, pc}
10000db8:	100005a1 	.word	0x100005a1

10000dbc <timer_hardware_alarm_claim>:
10000dbc:	b410      	push	{r4}
10000dbe:	4b05      	ldr	r3, [pc, #20]	@ (10000dd4 <timer_hardware_alarm_claim+0x18>)
10000dc0:	4c05      	ldr	r4, [pc, #20]	@ (10000dd8 <timer_hardware_alarm_claim+0x1c>)
10000dc2:	4a06      	ldr	r2, [pc, #24]	@ (10000ddc <timer_hardware_alarm_claim+0x20>)
10000dc4:	42a0      	cmp	r0, r4
10000dc6:	bf14      	ite	ne
10000dc8:	4618      	movne	r0, r3
10000dca:	1c58      	addeq	r0, r3, #1
10000dcc:	f85d 4b04 	ldr.w	r4, [sp], #4
10000dd0:	f7ff bae8 	b.w	100003a4 <hw_claim_or_assert>
10000dd4:	200003f4 	.word	0x200003f4
10000dd8:	400b8000 	.word	0x400b8000
10000ddc:	100016d8 	.word	0x100016d8

10000de0 <timer_time_us_64>:
10000de0:	4603      	mov	r3, r0
10000de2:	6a41      	ldr	r1, [r0, #36]	@ 0x24
10000de4:	460a      	mov	r2, r1
10000de6:	6a98      	ldr	r0, [r3, #40]	@ 0x28
10000de8:	6a59      	ldr	r1, [r3, #36]	@ 0x24
10000dea:	428a      	cmp	r2, r1
10000dec:	d1fa      	bne.n	10000de4 <timer_time_us_64+0x4>
10000dee:	4770      	bx	lr

10000df0 <time_us_64>:
10000df0:	4b03      	ldr	r3, [pc, #12]	@ (10000e00 <time_us_64+0x10>)
10000df2:	6a59      	ldr	r1, [r3, #36]	@ 0x24
10000df4:	460a      	mov	r2, r1
10000df6:	6a98      	ldr	r0, [r3, #40]	@ 0x28
10000df8:	6a59      	ldr	r1, [r3, #36]	@ 0x24
10000dfa:	4291      	cmp	r1, r2
10000dfc:	d1fa      	bne.n	10000df4 <time_us_64+0x4>
10000dfe:	4770      	bx	lr
10000e00:	400b0000 	.word	0x400b0000

10000e04 <busy_wait_until>:
10000e04:	4a07      	ldr	r2, [pc, #28]	@ (10000e24 <busy_wait_until+0x20>)
10000e06:	6a53      	ldr	r3, [r2, #36]	@ 0x24
10000e08:	4299      	cmp	r1, r3
10000e0a:	d8fc      	bhi.n	10000e06 <busy_wait_until+0x2>
10000e0c:	4299      	cmp	r1, r3
10000e0e:	d107      	bne.n	10000e20 <busy_wait_until+0x1c>
10000e10:	4b04      	ldr	r3, [pc, #16]	@ (10000e24 <busy_wait_until+0x20>)
10000e12:	e002      	b.n	10000e1a <busy_wait_until+0x16>
10000e14:	6a5a      	ldr	r2, [r3, #36]	@ 0x24
10000e16:	4291      	cmp	r1, r2
10000e18:	d102      	bne.n	10000e20 <busy_wait_until+0x1c>
10000e1a:	6a9a      	ldr	r2, [r3, #40]	@ 0x28
10000e1c:	4290      	cmp	r0, r2
10000e1e:	d8f9      	bhi.n	10000e14 <busy_wait_until+0x10>
10000e20:	4770      	bx	lr
10000e22:	bf00      	nop
10000e24:	400b0000 	.word	0x400b0000

10000e28 <clock_configure_undivided>:
10000e28:	eb00 0c40 	add.w	ip, r0, r0, lsl #1
10000e2c:	ea4f 0c8c 	mov.w	ip, ip, lsl #2
10000e30:	f10c 4c80 	add.w	ip, ip, #1073741824	@ 0x40000000
10000e34:	f50c 3c80 	add.w	ip, ip, #65536	@ 0x10000
10000e38:	b5f0      	push	{r4, r5, r6, r7, lr}
10000e3a:	4616      	mov	r6, r2
10000e3c:	f8dc 2004 	ldr.w	r2, [ip, #4]
10000e40:	1f05      	subs	r5, r0, #4
10000e42:	f5b2 3f80 	cmp.w	r2, #65536	@ 0x10000
10000e46:	bf38      	it	cc
10000e48:	f44f 3280 	movcc.w	r2, #65536	@ 0x10000
10000e4c:	b2ed      	uxtb	r5, r5
10000e4e:	bf38      	it	cc
10000e50:	f8cc 2004 	strcc.w	r2, [ip, #4]
10000e54:	2d01      	cmp	r5, #1
10000e56:	d92a      	bls.n	10000eae <clock_configure_undivided+0x86>
10000e58:	f44f 6700 	mov.w	r7, #2048	@ 0x800
10000e5c:	4c25      	ldr	r4, [pc, #148]	@ (10000ef4 <clock_configure_undivided+0xcc>)
10000e5e:	f50c 5240 	add.w	r2, ip, #12288	@ 0x3000
10000e62:	6017      	str	r7, [r2, #0]
10000e64:	f854 2020 	ldr.w	r2, [r4, r0, lsl #2]
10000e68:	b9b2      	cbnz	r2, 10000e98 <clock_configure_undivided+0x70>
10000e6a:	f8dc 2000 	ldr.w	r2, [ip]
10000e6e:	2d01      	cmp	r5, #1
10000e70:	ea82 1246 	eor.w	r2, r2, r6, lsl #5
10000e74:	f002 02e0 	and.w	r2, r2, #224	@ 0xe0
10000e78:	f50c 5680 	add.w	r6, ip, #4096	@ 0x1000
10000e7c:	6032      	str	r2, [r6, #0]
10000e7e:	d92a      	bls.n	10000ed6 <clock_configure_undivided+0xae>
10000e80:	f44f 6100 	mov.w	r1, #2048	@ 0x800
10000e84:	f844 3020 	str.w	r3, [r4, r0, lsl #2]
10000e88:	f44f 3380 	mov.w	r3, #65536	@ 0x10000
10000e8c:	f50c 5200 	add.w	r2, ip, #8192	@ 0x2000
10000e90:	6011      	str	r1, [r2, #0]
10000e92:	f8cc 3004 	str.w	r3, [ip, #4]
10000e96:	bdf0      	pop	{r4, r5, r6, r7, pc}
10000e98:	6967      	ldr	r7, [r4, #20]
10000e9a:	fbb7 fef2 	udiv	lr, r7, r2
10000e9e:	f10e 0e01 	add.w	lr, lr, #1
10000ea2:	eb0e 0e4e 	add.w	lr, lr, lr, lsl #1
10000ea6:	f1be 0e03 	subs.w	lr, lr, #3
10000eaa:	d2fc      	bcs.n	10000ea6 <clock_configure_undivided+0x7e>
10000eac:	e7dd      	b.n	10000e6a <clock_configure_undivided+0x42>
10000eae:	2901      	cmp	r1, #1
10000eb0:	d1d2      	bne.n	10000e58 <clock_configure_undivided+0x30>
10000eb2:	2403      	movs	r4, #3
10000eb4:	f50c 5240 	add.w	r2, ip, #12288	@ 0x3000
10000eb8:	6014      	str	r4, [r2, #0]
10000eba:	f8dc 2008 	ldr.w	r2, [ip, #8]
10000ebe:	07d2      	lsls	r2, r2, #31
10000ec0:	d5fb      	bpl.n	10000eba <clock_configure_undivided+0x92>
10000ec2:	f8dc 2000 	ldr.w	r2, [ip]
10000ec6:	4c0b      	ldr	r4, [pc, #44]	@ (10000ef4 <clock_configure_undivided+0xcc>)
10000ec8:	ea82 1246 	eor.w	r2, r2, r6, lsl #5
10000ecc:	f002 02e0 	and.w	r2, r2, #224	@ 0xe0
10000ed0:	f50c 5680 	add.w	r6, ip, #4096	@ 0x1000
10000ed4:	6032      	str	r2, [r6, #0]
10000ed6:	2201      	movs	r2, #1
10000ed8:	f8dc 5000 	ldr.w	r5, [ip]
10000edc:	404d      	eors	r5, r1
10000ede:	f005 0503 	and.w	r5, r5, #3
10000ee2:	6035      	str	r5, [r6, #0]
10000ee4:	fa02 f101 	lsl.w	r1, r2, r1
10000ee8:	f8dc 2008 	ldr.w	r2, [ip, #8]
10000eec:	420a      	tst	r2, r1
10000eee:	d0fb      	beq.n	10000ee8 <clock_configure_undivided+0xc0>
10000ef0:	e7c6      	b.n	10000e80 <clock_configure_undivided+0x58>
10000ef2:	bf00      	nop
10000ef4:	200003f8 	.word	0x200003f8

10000ef8 <clock_get_hz>:
10000ef8:	4b01      	ldr	r3, [pc, #4]	@ (10000f00 <clock_get_hz+0x8>)
10000efa:	f853 0020 	ldr.w	r0, [r3, r0, lsl #2]
10000efe:	4770      	bx	lr
10000f00:	200003f8 	.word	0x200003f8

10000f04 <pll_init>:
10000f04:	b470      	push	{r4, r5, r6}
10000f06:	9d03      	ldr	r5, [sp, #12]
10000f08:	6804      	ldr	r4, [r0, #0]
10000f0a:	032d      	lsls	r5, r5, #12
10000f0c:	ea45 4503 	orr.w	r5, r5, r3, lsl #16
10000f10:	4b1b      	ldr	r3, [pc, #108]	@ (10000f80 <pll_init+0x7c>)
10000f12:	2c00      	cmp	r4, #0
10000f14:	fbb3 f3f1 	udiv	r3, r3, r1
10000f18:	fbb2 f6f3 	udiv	r6, r2, r3
10000f1c:	db1f      	blt.n	10000f5e <pll_init+0x5a>
10000f1e:	4a19      	ldr	r2, [pc, #100]	@ (10000f84 <pll_init+0x80>)
10000f20:	4b19      	ldr	r3, [pc, #100]	@ (10000f88 <pll_init+0x84>)
10000f22:	4290      	cmp	r0, r2
10000f24:	bf14      	ite	ne
10000f26:	f44f 4280 	movne.w	r2, #16384	@ 0x4000
10000f2a:	f44f 4200 	moveq.w	r2, #32768	@ 0x8000
10000f2e:	4c17      	ldr	r4, [pc, #92]	@ (10000f8c <pll_init+0x88>)
10000f30:	601a      	str	r2, [r3, #0]
10000f32:	f503 5380 	add.w	r3, r3, #4096	@ 0x1000
10000f36:	601a      	str	r2, [r3, #0]
10000f38:	68a3      	ldr	r3, [r4, #8]
10000f3a:	ea32 0303 	bics.w	r3, r2, r3
10000f3e:	d1fb      	bne.n	10000f38 <pll_init+0x34>
10000f40:	2221      	movs	r2, #33	@ 0x21
10000f42:	f500 5340 	add.w	r3, r0, #12288	@ 0x3000
10000f46:	3304      	adds	r3, #4
10000f48:	6001      	str	r1, [r0, #0]
10000f4a:	6086      	str	r6, [r0, #8]
10000f4c:	601a      	str	r2, [r3, #0]
10000f4e:	6802      	ldr	r2, [r0, #0]
10000f50:	2a00      	cmp	r2, #0
10000f52:	dafc      	bge.n	10000f4e <pll_init+0x4a>
10000f54:	2208      	movs	r2, #8
10000f56:	60c5      	str	r5, [r0, #12]
10000f58:	601a      	str	r2, [r3, #0]
10000f5a:	bc70      	pop	{r4, r5, r6}
10000f5c:	4770      	bx	lr
10000f5e:	6803      	ldr	r3, [r0, #0]
10000f60:	f003 033f 	and.w	r3, r3, #63	@ 0x3f
10000f64:	428b      	cmp	r3, r1
10000f66:	d1da      	bne.n	10000f1e <pll_init+0x1a>
10000f68:	6883      	ldr	r3, [r0, #8]
10000f6a:	f3c3 030b 	ubfx	r3, r3, #0, #12
10000f6e:	42b3      	cmp	r3, r6
10000f70:	d1d5      	bne.n	10000f1e <pll_init+0x1a>
10000f72:	68c3      	ldr	r3, [r0, #12]
10000f74:	f403 23ee 	and.w	r3, r3, #487424	@ 0x77000
10000f78:	42ab      	cmp	r3, r5
10000f7a:	d1d0      	bne.n	10000f1e <pll_init+0x1a>
10000f7c:	e7ed      	b.n	10000f5a <pll_init+0x56>
10000f7e:	bf00      	nop
10000f80:	00b71b00 	.word	0x00b71b00
10000f84:	40058000 	.word	0x40058000
10000f88:	40022000 	.word	0x40022000
10000f8c:	40020000 	.word	0x40020000

10000f90 <tick_start>:
10000f90:	2301      	movs	r3, #1
10000f92:	eb00 0040 	add.w	r0, r0, r0, lsl #1
10000f96:	0080      	lsls	r0, r0, #2
10000f98:	f100 4080 	add.w	r0, r0, #1073741824	@ 0x40000000
10000f9c:	f500 1084 	add.w	r0, r0, #1081344	@ 0x108000
10000fa0:	6041      	str	r1, [r0, #4]
10000fa2:	6003      	str	r3, [r0, #0]
10000fa4:	4770      	bx	lr
10000fa6:	bf00      	nop

10000fa8 <rom_func_lookup>:
10000fa8:	2300      	movs	r3, #0
10000faa:	8adb      	ldrh	r3, [r3, #22]
10000fac:	2200      	movs	r2, #0
10000fae:	e842 f200 	tt	r2, r2
10000fb2:	0252      	lsls	r2, r2, #9
10000fb4:	d401      	bmi.n	10000fba <rom_func_lookup+0x12>
10000fb6:	2110      	movs	r1, #16
10000fb8:	4718      	bx	r3
10000fba:	2104      	movs	r1, #4
10000fbc:	4718      	bx	r3
10000fbe:	bf00      	nop

10000fc0 <runtime_init_bootrom_locking_enable>:
10000fc0:	4a03      	ldr	r2, [pc, #12]	@ (10000fd0 <runtime_init_bootrom_locking_enable+0x10>)
10000fc2:	f8d2 3828 	ldr.w	r3, [r2, #2088]	@ 0x828
10000fc6:	2b00      	cmp	r3, #0
10000fc8:	d0fb      	beq.n	10000fc2 <runtime_init_bootrom_locking_enable+0x2>
10000fca:	f3bf 8f5f 	dmb	sy
10000fce:	4770      	bx	lr
10000fd0:	400e0000 	.word	0x400e0000

10000fd4 <runtime_init_boot_locks_reset>:
10000fd4:	2100      	movs	r1, #0
10000fd6:	4b04      	ldr	r3, [pc, #16]	@ (10000fe8 <runtime_init_boot_locks_reset+0x14>)
10000fd8:	4a04      	ldr	r2, [pc, #16]	@ (10000fec <runtime_init_boot_locks_reset+0x18>)
10000fda:	f3bf 8f5f 	dmb	sy
10000fde:	f843 1b04 	str.w	r1, [r3], #4
10000fe2:	4293      	cmp	r3, r2
10000fe4:	d1f9      	bne.n	10000fda <runtime_init_boot_locks_reset+0x6>
10000fe6:	4770      	bx	lr
10000fe8:	400e080c 	.word	0x400e080c
10000fec:	400e082c 	.word	0x400e082c

10000ff0 <xosc_init>:
10000ff0:	b410      	push	{r4}
10000ff2:	f44f 708d 	mov.w	r0, #282	@ 0x11a
10000ff6:	f44f 642a 	mov.w	r4, #2720	@ 0xaa0
10000ffa:	4a06      	ldr	r2, [pc, #24]	@ (10001014 <xosc_init+0x24>)
10000ffc:	4b06      	ldr	r3, [pc, #24]	@ (10001018 <xosc_init+0x28>)
10000ffe:	4907      	ldr	r1, [pc, #28]	@ (1000101c <xosc_init+0x2c>)
10001000:	6014      	str	r4, [r2, #0]
10001002:	60d0      	str	r0, [r2, #12]
10001004:	6019      	str	r1, [r3, #0]
10001006:	6853      	ldr	r3, [r2, #4]
10001008:	2b00      	cmp	r3, #0
1000100a:	dafc      	bge.n	10001006 <xosc_init+0x16>
1000100c:	f85d 4b04 	ldr.w	r4, [sp], #4
10001010:	4770      	bx	lr
10001012:	bf00      	nop
10001014:	40048000 	.word	0x40048000
10001018:	4004a000 	.word	0x4004a000
1000101c:	00fab000 	.word	0x00fab000

10001020 <first_per_core_initializer>:
10001020:	4770      	bx	lr
10001022:	bf00      	nop

10001024 <hard_assertion_failure>:
10001024:	b508      	push	{r3, lr}
10001026:	4801      	ldr	r0, [pc, #4]	@ (1000102c <hard_assertion_failure+0x8>)
10001028:	f7ff f9a4 	bl	10000374 <panic>
1000102c:	100016fc 	.word	0x100016fc

10001030 <runtime_run_initializers>:
10001030:	b538      	push	{r3, r4, r5, lr}
10001032:	4c05      	ldr	r4, [pc, #20]	@ (10001048 <runtime_run_initializers+0x18>)
10001034:	4d05      	ldr	r5, [pc, #20]	@ (1000104c <runtime_run_initializers+0x1c>)
10001036:	42ac      	cmp	r4, r5
10001038:	d204      	bcs.n	10001044 <runtime_run_initializers+0x14>
1000103a:	f854 3b04 	ldr.w	r3, [r4], #4
1000103e:	4798      	blx	r3
10001040:	42ac      	cmp	r4, r5
10001042:	d3fa      	bcc.n	1000103a <runtime_run_initializers+0xa>
10001044:	bd38      	pop	{r3, r4, r5, pc}
10001046:	bf00      	nop
10001048:	10001678 	.word	0x10001678
1000104c:	100016b8 	.word	0x100016b8

10001050 <runtime_init_early_resets>:
10001050:	b410      	push	{r4}
10001052:	4807      	ldr	r0, [pc, #28]	@ (10001070 <runtime_init_early_resets+0x20>)
10001054:	4c07      	ldr	r4, [pc, #28]	@ (10001074 <runtime_init_early_resets+0x24>)
10001056:	4b08      	ldr	r3, [pc, #32]	@ (10001078 <runtime_init_early_resets+0x28>)
10001058:	4a08      	ldr	r2, [pc, #32]	@ (1000107c <runtime_init_early_resets+0x2c>)
1000105a:	4909      	ldr	r1, [pc, #36]	@ (10001080 <runtime_init_early_resets+0x30>)
1000105c:	6004      	str	r4, [r0, #0]
1000105e:	601a      	str	r2, [r3, #0]
10001060:	688b      	ldr	r3, [r1, #8]
10001062:	ea32 0303 	bics.w	r3, r2, r3
10001066:	d1fb      	bne.n	10001060 <runtime_init_early_resets+0x10>
10001068:	f85d 4b04 	ldr.w	r4, [sp], #4
1000106c:	4770      	bx	lr
1000106e:	bf00      	nop
10001070:	40022000 	.word	0x40022000
10001074:	efef3b7f 	.word	0xefef3b7f
10001078:	40023000 	.word	0x40023000
1000107c:	03f3fff6 	.word	0x03f3fff6
10001080:	40020000 	.word	0x40020000

10001084 <runtime_init_usb_power_down>:
10001084:	4b04      	ldr	r3, [pc, #16]	@ (10001098 <runtime_init_usb_power_down+0x14>)
10001086:	6cdb      	ldr	r3, [r3, #76]	@ 0x4c
10001088:	f5b3 4f00 	cmp.w	r3, #32768	@ 0x8000
1000108c:	d103      	bne.n	10001096 <runtime_init_usb_power_down+0x12>
1000108e:	f44f 2280 	mov.w	r2, #262144	@ 0x40000
10001092:	4b02      	ldr	r3, [pc, #8]	@ (1000109c <runtime_init_usb_power_down+0x18>)
10001094:	64da      	str	r2, [r3, #76]	@ 0x4c
10001096:	4770      	bx	lr
10001098:	50110000 	.word	0x50110000
1000109c:	50112000 	.word	0x50112000

100010a0 <runtime_init_per_core_enable_coprocessors>:
100010a0:	f04f 22e0 	mov.w	r2, #3758153728	@ 0xe000e000
100010a4:	4b04      	ldr	r3, [pc, #16]	@ (100010b8 <runtime_init_per_core_enable_coprocessors+0x18>)
100010a6:	f8d2 1d88 	ldr.w	r1, [r2, #3464]	@ 0xd88
100010aa:	430b      	orrs	r3, r1
100010ac:	f8c2 3d88 	str.w	r3, [r2, #3464]	@ 0xd88
100010b0:	ee10 0430 			dcp_rcmp r0
100010b4:	4770      	bx	lr
100010b6:	bf00      	nop
100010b8:	00300303 	.word	0x00300303

100010bc <runtime_init_post_clock_resets>:
100010bc:	f06f 4160 	mvn.w	r1, #3758096384	@ 0xe0000000
100010c0:	4b04      	ldr	r3, [pc, #16]	@ (100010d4 <runtime_init_post_clock_resets+0x18>)
100010c2:	4a05      	ldr	r2, [pc, #20]	@ (100010d8 <runtime_init_post_clock_resets+0x1c>)
100010c4:	6019      	str	r1, [r3, #0]
100010c6:	6893      	ldr	r3, [r2, #8]
100010c8:	43db      	mvns	r3, r3
100010ca:	f033 4360 	bics.w	r3, r3, #3758096384	@ 0xe0000000
100010ce:	d1fa      	bne.n	100010c6 <runtime_init_post_clock_resets+0xa>
100010d0:	4770      	bx	lr
100010d2:	bf00      	nop
100010d4:	40023000 	.word	0x40023000
100010d8:	40020000 	.word	0x40020000

100010dc <runtime_init_bootrom_reset>:
100010dc:	b510      	push	{r4, lr}
100010de:	f245 2053 	movw	r0, #21075	@ 0x5253
100010e2:	f7ff ff61 	bl	10000fa8 <rom_func_lookup>
100010e6:	e8bd 4010 	ldmia.w	sp!, {r4, lr}
100010ea:	4603      	mov	r3, r0
100010ec:	2004      	movs	r0, #4
100010ee:	4718      	bx	r3

100010f0 <runtime_init_per_core_bootrom_reset>:
100010f0:	b510      	push	{r4, lr}
100010f2:	f245 2053 	movw	r0, #21075	@ 0x5253
100010f6:	f7ff ff57 	bl	10000fa8 <rom_func_lookup>
100010fa:	e8bd 4010 	ldmia.w	sp!, {r4, lr}
100010fe:	4603      	mov	r3, r0
10001100:	2001      	movs	r0, #1
10001102:	4718      	bx	r3

10001104 <runtime_init_spin_locks_reset>:
10001104:	f7ff b98e 	b.w	10000424 <spin_locks_reset>

10001108 <runtime_init_install_ram_vector_table>:
10001108:	4914      	ldr	r1, [pc, #80]	@ (1000115c <runtime_init_install_ram_vector_table+0x54>)
1000110a:	4b15      	ldr	r3, [pc, #84]	@ (10001160 <runtime_init_install_ram_vector_table+0x58>)
1000110c:	b570      	push	{r4, r5, r6, lr}
1000110e:	1a5c      	subs	r4, r3, r1
10001110:	10a6      	asrs	r6, r4, #2
10001112:	2e44      	cmp	r6, #68	@ 0x44
10001114:	4632      	mov	r2, r6
10001116:	bf28      	it	cs
10001118:	2244      	movcs	r2, #68	@ 0x44
1000111a:	4d12      	ldr	r5, [pc, #72]	@ (10001164 <runtime_init_install_ram_vector_table+0x5c>)
1000111c:	0092      	lsls	r2, r2, #2
1000111e:	4628      	mov	r0, r5
10001120:	f000 f9fc 	bl	1000151c <memcpy>
10001124:	f5b4 7f86 	cmp.w	r4, #268	@ 0x10c
10001128:	d813      	bhi.n	10001152 <runtime_init_install_ram_vector_table+0x4a>
1000112a:	4a0f      	ldr	r2, [pc, #60]	@ (10001168 <runtime_init_install_ram_vector_table+0x60>)
1000112c:	f1c6 0044 	rsb	r0, r6, #68	@ 0x44
10001130:	d012      	beq.n	10001158 <runtime_init_install_ram_vector_table+0x50>
10001132:	192b      	adds	r3, r5, r4
10001134:	0841      	lsrs	r1, r0, #1
10001136:	eb03 01c1 	add.w	r1, r3, r1, lsl #3
1000113a:	e9c3 2200 	strd	r2, r2, [r3]
1000113e:	3308      	adds	r3, #8
10001140:	428b      	cmp	r3, r1
10001142:	d1fa      	bne.n	1000113a <runtime_init_install_ram_vector_table+0x32>
10001144:	07c3      	lsls	r3, r0, #31
10001146:	d504      	bpl.n	10001152 <runtime_init_install_ram_vector_table+0x4a>
10001148:	f020 0001 	bic.w	r0, r0, #1
1000114c:	4430      	add	r0, r6
1000114e:	f845 2020 	str.w	r2, [r5, r0, lsl #2]
10001152:	4b06      	ldr	r3, [pc, #24]	@ (1000116c <runtime_init_install_ram_vector_table+0x64>)
10001154:	609d      	str	r5, [r3, #8]
10001156:	bd70      	pop	{r4, r5, r6, pc}
10001158:	2043      	movs	r0, #67	@ 0x43
1000115a:	e7f8      	b.n	1000114e <runtime_init_install_ram_vector_table+0x46>
1000115c:	10000000 	.word	0x10000000
10001160:	10000110 	.word	0x10000110
10001164:	20000000 	.word	0x20000000
10001168:	10000111 	.word	0x10000111
1000116c:	e000ed00 	.word	0xe000ed00

10001170 <runtime_init_clocks>:
10001170:	2300      	movs	r3, #0
10001172:	b570      	push	{r4, r5, r6, lr}
10001174:	4c2b      	ldr	r4, [pc, #172]	@ (10001224 <runtime_init_clocks+0xb4>)
10001176:	b082      	sub	sp, #8
10001178:	f8c4 3084 	str.w	r3, [r4, #132]	@ 0x84
1000117c:	f7ff ff38 	bl	10000ff0 <xosc_init>
10001180:	2201      	movs	r2, #1
10001182:	4b29      	ldr	r3, [pc, #164]	@ (10001228 <runtime_init_clocks+0xb8>)
10001184:	63da      	str	r2, [r3, #60]	@ 0x3c
10001186:	6c63      	ldr	r3, [r4, #68]	@ 0x44
10001188:	2b01      	cmp	r3, #1
1000118a:	d1fc      	bne.n	10001186 <runtime_init_clocks+0x16>
1000118c:	2103      	movs	r1, #3
1000118e:	4a26      	ldr	r2, [pc, #152]	@ (10001228 <runtime_init_clocks+0xb8>)
10001190:	4b24      	ldr	r3, [pc, #144]	@ (10001224 <runtime_init_clocks+0xb4>)
10001192:	6311      	str	r1, [r2, #48]	@ 0x30
10001194:	6b9c      	ldr	r4, [r3, #56]	@ 0x38
10001196:	2c01      	cmp	r4, #1
10001198:	d1fc      	bne.n	10001194 <runtime_init_clocks+0x24>
1000119a:	2602      	movs	r6, #2
1000119c:	2505      	movs	r5, #5
1000119e:	4621      	mov	r1, r4
100011a0:	2305      	movs	r3, #5
100011a2:	4a22      	ldr	r2, [pc, #136]	@ (1000122c <runtime_init_clocks+0xbc>)
100011a4:	4822      	ldr	r0, [pc, #136]	@ (10001230 <runtime_init_clocks+0xc0>)
100011a6:	9600      	str	r6, [sp, #0]
100011a8:	f7ff feac 	bl	10000f04 <pll_init>
100011ac:	4621      	mov	r1, r4
100011ae:	462b      	mov	r3, r5
100011b0:	4a20      	ldr	r2, [pc, #128]	@ (10001234 <runtime_init_clocks+0xc4>)
100011b2:	4821      	ldr	r0, [pc, #132]	@ (10001238 <runtime_init_clocks+0xc8>)
100011b4:	9500      	str	r5, [sp, #0]
100011b6:	f7ff fea5 	bl	10000f04 <pll_init>
100011ba:	2200      	movs	r2, #0
100011bc:	2004      	movs	r0, #4
100011be:	4631      	mov	r1, r6
100011c0:	4b1e      	ldr	r3, [pc, #120]	@ (1000123c <runtime_init_clocks+0xcc>)
100011c2:	f7ff fe31 	bl	10000e28 <clock_configure_undivided>
100011c6:	4621      	mov	r1, r4
100011c8:	4628      	mov	r0, r5
100011ca:	2200      	movs	r2, #0
100011cc:	4b1c      	ldr	r3, [pc, #112]	@ (10001240 <runtime_init_clocks+0xd0>)
100011ce:	f7ff fe2b 	bl	10000e28 <clock_configure_undivided>
100011d2:	2200      	movs	r2, #0
100011d4:	2008      	movs	r0, #8
100011d6:	4611      	mov	r1, r2
100011d8:	4b1a      	ldr	r3, [pc, #104]	@ (10001244 <runtime_init_clocks+0xd4>)
100011da:	f7ff fe25 	bl	10000e28 <clock_configure_undivided>
100011de:	2200      	movs	r2, #0
100011e0:	2009      	movs	r0, #9
100011e2:	4611      	mov	r1, r2
100011e4:	4b17      	ldr	r3, [pc, #92]	@ (10001244 <runtime_init_clocks+0xd4>)
100011e6:	f7ff fe1f 	bl	10000e28 <clock_configure_undivided>
100011ea:	2200      	movs	r2, #0
100011ec:	2006      	movs	r0, #6
100011ee:	4611      	mov	r1, r2
100011f0:	4b13      	ldr	r3, [pc, #76]	@ (10001240 <runtime_init_clocks+0xd0>)
100011f2:	f7ff fe19 	bl	10000e28 <clock_configure_undivided>
100011f6:	2200      	movs	r2, #0
100011f8:	4b11      	ldr	r3, [pc, #68]	@ (10001240 <runtime_init_clocks+0xd0>)
100011fa:	2007      	movs	r0, #7
100011fc:	4611      	mov	r1, r2
100011fe:	f7ff fe13 	bl	10000e28 <clock_configure_undivided>
10001202:	2004      	movs	r0, #4
10001204:	f7ff fe78 	bl	10000ef8 <clock_get_hz>
10001208:	2400      	movs	r4, #0
1000120a:	4b0f      	ldr	r3, [pc, #60]	@ (10001248 <runtime_init_clocks+0xd8>)
1000120c:	fba3 3500 	umull	r3, r5, r3, r0
10001210:	0cad      	lsrs	r5, r5, #18
10001212:	b2e0      	uxtb	r0, r4
10001214:	4629      	mov	r1, r5
10001216:	3401      	adds	r4, #1
10001218:	f7ff feba 	bl	10000f90 <tick_start>
1000121c:	2c06      	cmp	r4, #6
1000121e:	d1f8      	bne.n	10001212 <runtime_init_clocks+0xa2>
10001220:	b002      	add	sp, #8
10001222:	bd70      	pop	{r4, r5, r6, pc}
10001224:	40010000 	.word	0x40010000
10001228:	40013000 	.word	0x40013000
1000122c:	59682f00 	.word	0x59682f00
10001230:	40050000 	.word	0x40050000
10001234:	47868c00 	.word	0x47868c00
10001238:	40058000 	.word	0x40058000
1000123c:	00b71b00 	.word	0x00b71b00
10001240:	08f0d180 	.word	0x08f0d180
10001244:	02dc6c00 	.word	0x02dc6c00
10001248:	431bde83 	.word	0x431bde83

1000124c <_out_char>:
1000124c:	b900      	cbnz	r0, 10001250 <_out_char+0x4>
1000124e:	4770      	bx	lr
10001250:	f000 b904 	b.w	1000145c <__wrap_putchar>

10001254 <weak_raw_vprintf>:
10001254:	b510      	push	{r4, lr}
10001256:	4b09      	ldr	r3, [pc, #36]	@ (1000127c <weak_raw_vprintf+0x28>)
10001258:	b084      	sub	sp, #16
1000125a:	681c      	ldr	r4, [r3, #0]
1000125c:	b14c      	cbz	r4, 10001272 <weak_raw_vprintf+0x1e>
1000125e:	4603      	mov	r3, r0
10001260:	9100      	str	r1, [sp, #0]
10001262:	f04f 32ff 	mov.w	r2, #4294967295	@ 0xffffffff
10001266:	a903      	add	r1, sp, #12
10001268:	4805      	ldr	r0, [pc, #20]	@ (10001280 <weak_raw_vprintf+0x2c>)
1000126a:	47a0      	blx	r4
1000126c:	2001      	movs	r0, #1
1000126e:	b004      	add	sp, #16
10001270:	bd10      	pop	{r4, pc}
10001272:	f000 f935 	bl	100014e0 <__wrap_puts>
10001276:	4620      	mov	r0, r4
10001278:	b004      	add	sp, #16
1000127a:	bd10      	pop	{r4, pc}
1000127c:	20000428 	.word	0x20000428
10001280:	1000124d 	.word	0x1000124d

10001284 <_exit>:
10001284:	be00      	bkpt	0x0000
10001286:	e7fd      	b.n	10001284 <_exit>

10001288 <exit>:
10001288:	b508      	push	{r3, lr}
1000128a:	f7ff fffb 	bl	10001284 <_exit>
1000128e:	bf00      	nop

10001290 <runtime_init>:
10001290:	b538      	push	{r3, r4, r5, lr}
10001292:	4c06      	ldr	r4, [pc, #24]	@ (100012ac <runtime_init+0x1c>)
10001294:	4d06      	ldr	r5, [pc, #24]	@ (100012b0 <runtime_init+0x20>)
10001296:	f7ff fecb 	bl	10001030 <runtime_run_initializers>
1000129a:	42ac      	cmp	r4, r5
1000129c:	d204      	bcs.n	100012a8 <runtime_init+0x18>
1000129e:	f854 3b04 	ldr.w	r3, [r4], #4
100012a2:	4798      	blx	r3
100012a4:	42ac      	cmp	r4, r5
100012a6:	d3fa      	bcc.n	1000129e <runtime_init+0xe>
100012a8:	bd38      	pop	{r3, r4, r5, pc}
100012aa:	bf00      	nop
100012ac:	100016b8 	.word	0x100016b8
100012b0:	100016bc 	.word	0x100016bc

100012b4 <stdio_out_chars_no_crlf>:
100012b4:	6803      	ldr	r3, [r0, #0]
100012b6:	4608      	mov	r0, r1
100012b8:	4611      	mov	r1, r2
100012ba:	4718      	bx	r3

100012bc <stdio_out_chars_crlf>:
100012bc:	e92d 41f0 	stmdb	sp!, {r4, r5, r6, r7, r8, lr}
100012c0:	4615      	mov	r5, r2
100012c2:	7d42      	ldrb	r2, [r0, #21]
100012c4:	4607      	mov	r7, r0
100012c6:	4688      	mov	r8, r1
100012c8:	2a00      	cmp	r2, #0
100012ca:	d046      	beq.n	1000135a <stdio_out_chars_crlf+0x9e>
100012cc:	2d00      	cmp	r5, #0
100012ce:	dd1d      	ble.n	1000130c <stdio_out_chars_crlf+0x50>
100012d0:	780b      	ldrb	r3, [r1, #0]
100012d2:	2b0a      	cmp	r3, #10
100012d4:	d023      	beq.n	1000131e <stdio_out_chars_crlf+0x62>
100012d6:	2d01      	cmp	r5, #1
100012d8:	f04f 0c00 	mov.w	ip, #0
100012dc:	d018      	beq.n	10001310 <stdio_out_chars_crlf+0x54>
100012de:	4646      	mov	r6, r8
100012e0:	2401      	movs	r4, #1
100012e2:	f816 2f01 	ldrb.w	r2, [r6, #1]!
100012e6:	4621      	mov	r1, r4
100012e8:	2a0a      	cmp	r2, #10
100012ea:	f104 0401 	add.w	r4, r4, #1
100012ee:	d022      	beq.n	10001336 <stdio_out_chars_crlf+0x7a>
100012f0:	42a5      	cmp	r5, r4
100012f2:	d1f6      	bne.n	100012e2 <stdio_out_chars_crlf+0x26>
100012f4:	4565      	cmp	r5, ip
100012f6:	dc0b      	bgt.n	10001310 <stdio_out_chars_crlf+0x54>
100012f8:	eb08 0305 	add.w	r3, r8, r5
100012fc:	f813 3c01 	ldrb.w	r3, [r3, #-1]
10001300:	f1a3 030d 	sub.w	r3, r3, #13
10001304:	fab3 f383 	clz	r3, r3
10001308:	095b      	lsrs	r3, r3, #5
1000130a:	753b      	strb	r3, [r7, #20]
1000130c:	e8bd 81f0 	ldmia.w	sp!, {r4, r5, r6, r7, r8, pc}
10001310:	683b      	ldr	r3, [r7, #0]
10001312:	eba5 010c 	sub.w	r1, r5, ip
10001316:	eb08 000c 	add.w	r0, r8, ip
1000131a:	4798      	blx	r3
1000131c:	e7ec      	b.n	100012f8 <stdio_out_chars_crlf+0x3c>
1000131e:	7d03      	ldrb	r3, [r0, #20]
10001320:	2b00      	cmp	r3, #0
10001322:	d1d8      	bne.n	100012d6 <stdio_out_chars_crlf+0x1a>
10001324:	6803      	ldr	r3, [r0, #0]
10001326:	2102      	movs	r1, #2
10001328:	480f      	ldr	r0, [pc, #60]	@ (10001368 <stdio_out_chars_crlf+0xac>)
1000132a:	4798      	blx	r3
1000132c:	2d01      	cmp	r5, #1
1000132e:	d0e3      	beq.n	100012f8 <stdio_out_chars_crlf+0x3c>
10001330:	f04f 0c01 	mov.w	ip, #1
10001334:	e7d3      	b.n	100012de <stdio_out_chars_crlf+0x22>
10001336:	f816 3c01 	ldrb.w	r3, [r6, #-1]
1000133a:	2b0d      	cmp	r3, #13
1000133c:	d0d8      	beq.n	100012f0 <stdio_out_chars_crlf+0x34>
1000133e:	458c      	cmp	ip, r1
10001340:	eb08 000c 	add.w	r0, r8, ip
10001344:	eba1 010c 	sub.w	r1, r1, ip
10001348:	da01      	bge.n	1000134e <stdio_out_chars_crlf+0x92>
1000134a:	683b      	ldr	r3, [r7, #0]
1000134c:	4798      	blx	r3
1000134e:	2102      	movs	r1, #2
10001350:	4805      	ldr	r0, [pc, #20]	@ (10001368 <stdio_out_chars_crlf+0xac>)
10001352:	683b      	ldr	r3, [r7, #0]
10001354:	4798      	blx	r3
10001356:	46a4      	mov	ip, r4
10001358:	e7ca      	b.n	100012f0 <stdio_out_chars_crlf+0x34>
1000135a:	4629      	mov	r1, r5
1000135c:	4640      	mov	r0, r8
1000135e:	683b      	ldr	r3, [r7, #0]
10001360:	e8bd 41f0 	ldmia.w	sp!, {r4, r5, r6, r7, r8, lr}
10001364:	4718      	bx	r3
10001366:	bf00      	nop
10001368:	1000179c 	.word	0x1000179c

1000136c <stdio_put_string>:
1000136c:	e92d 47f0 	stmdb	sp!, {r4, r5, r6, r7, r8, r9, sl, lr}
10001370:	b082      	sub	sp, #8
10001372:	460d      	mov	r5, r1
10001374:	4691      	mov	r9, r2
10001376:	461c      	mov	r4, r3
10001378:	4606      	mov	r6, r0
1000137a:	f7ff fd39 	bl	10000df0 <time_us_64>
1000137e:	f04f 3cff 	mov.w	ip, #4294967295	@ 0xffffffff
10001382:	f06f 4700 	mvn.w	r7, #2147483648	@ 0x80000000
10001386:	4a2e      	ldr	r2, [pc, #184]	@ (10001440 <stdio_put_string+0xd4>)
10001388:	1882      	adds	r2, r0, r2
1000138a:	f141 0300 	adc.w	r3, r1, #0
1000138e:	4594      	cmp	ip, r2
10001390:	eb77 0103 	sbcs.w	r1, r7, r3
10001394:	bf3c      	itt	cc
10001396:	4662      	movcc	r2, ip
10001398:	463b      	movcc	r3, r7
1000139a:	482a      	ldr	r0, [pc, #168]	@ (10001444 <stdio_put_string+0xd8>)
1000139c:	f000 f968 	bl	10001670 <__mutex_try_enter_block_until_veneer>
100013a0:	1c6b      	adds	r3, r5, #1
100013a2:	4680      	mov	r8, r0
100013a4:	d040      	beq.n	10001428 <stdio_put_string+0xbc>
100013a6:	b30c      	cbz	r4, 100013ec <stdio_put_string+0x80>
100013a8:	4f27      	ldr	r7, [pc, #156]	@ (10001448 <stdio_put_string+0xdc>)
100013aa:	4b28      	ldr	r3, [pc, #160]	@ (1000144c <stdio_put_string+0xe0>)
100013ac:	681c      	ldr	r4, [r3, #0]
100013ae:	b1b4      	cbz	r4, 100013de <stdio_put_string+0x72>
100013b0:	f1b9 0f00 	cmp.w	r9, #0
100013b4:	d11c      	bne.n	100013f0 <stdio_put_string+0x84>
100013b6:	f8df 909c 	ldr.w	r9, [pc, #156]	@ 10001454 <stdio_put_string+0xe8>
100013ba:	e001      	b.n	100013c0 <stdio_put_string+0x54>
100013bc:	6924      	ldr	r4, [r4, #16]
100013be:	b174      	cbz	r4, 100013de <stdio_put_string+0x72>
100013c0:	6823      	ldr	r3, [r4, #0]
100013c2:	2b00      	cmp	r3, #0
100013c4:	d0fa      	beq.n	100013bc <stdio_put_string+0x50>
100013c6:	f8d9 3000 	ldr.w	r3, [r9]
100013ca:	b10b      	cbz	r3, 100013d0 <stdio_put_string+0x64>
100013cc:	429c      	cmp	r4, r3
100013ce:	d1f5      	bne.n	100013bc <stdio_put_string+0x50>
100013d0:	4620      	mov	r0, r4
100013d2:	462a      	mov	r2, r5
100013d4:	4631      	mov	r1, r6
100013d6:	47b8      	blx	r7
100013d8:	6924      	ldr	r4, [r4, #16]
100013da:	2c00      	cmp	r4, #0
100013dc:	d1f0      	bne.n	100013c0 <stdio_put_string+0x54>
100013de:	f1b8 0f00 	cmp.w	r8, #0
100013e2:	d126      	bne.n	10001432 <stdio_put_string+0xc6>
100013e4:	4628      	mov	r0, r5
100013e6:	b002      	add	sp, #8
100013e8:	e8bd 87f0 	ldmia.w	sp!, {r4, r5, r6, r7, r8, r9, sl, pc}
100013ec:	4f18      	ldr	r7, [pc, #96]	@ (10001450 <stdio_put_string+0xe4>)
100013ee:	e7dc      	b.n	100013aa <stdio_put_string+0x3e>
100013f0:	f04f 0a0a 	mov.w	sl, #10
100013f4:	f8df 905c 	ldr.w	r9, [pc, #92]	@ 10001454 <stdio_put_string+0xe8>
100013f8:	e002      	b.n	10001400 <stdio_put_string+0x94>
100013fa:	6924      	ldr	r4, [r4, #16]
100013fc:	2c00      	cmp	r4, #0
100013fe:	d0ee      	beq.n	100013de <stdio_put_string+0x72>
10001400:	6823      	ldr	r3, [r4, #0]
10001402:	2b00      	cmp	r3, #0
10001404:	d0f9      	beq.n	100013fa <stdio_put_string+0x8e>
10001406:	f8d9 3000 	ldr.w	r3, [r9]
1000140a:	b10b      	cbz	r3, 10001410 <stdio_put_string+0xa4>
1000140c:	42a3      	cmp	r3, r4
1000140e:	d1f4      	bne.n	100013fa <stdio_put_string+0x8e>
10001410:	462a      	mov	r2, r5
10001412:	4631      	mov	r1, r6
10001414:	4620      	mov	r0, r4
10001416:	47b8      	blx	r7
10001418:	2201      	movs	r2, #1
1000141a:	4620      	mov	r0, r4
1000141c:	f10d 0107 	add.w	r1, sp, #7
10001420:	f88d a007 	strb.w	sl, [sp, #7]
10001424:	47b8      	blx	r7
10001426:	e7e8      	b.n	100013fa <stdio_put_string+0x8e>
10001428:	4630      	mov	r0, r6
1000142a:	f000 f8ed 	bl	10001608 <strlen>
1000142e:	4605      	mov	r5, r0
10001430:	e7b9      	b.n	100013a6 <stdio_put_string+0x3a>
10001432:	4804      	ldr	r0, [pc, #16]	@ (10001444 <stdio_put_string+0xd8>)
10001434:	f000 f918 	bl	10001668 <__mutex_exit_veneer>
10001438:	4628      	mov	r0, r5
1000143a:	b002      	add	sp, #8
1000143c:	e8bd 87f0 	ldmia.w	sp!, {r4, r5, r6, r7, r8, r9, sl, pc}
10001440:	000f4240 	.word	0x000f4240
10001444:	20000244 	.word	0x20000244
10001448:	100012bd 	.word	0x100012bd
1000144c:	20000420 	.word	0x20000420
10001450:	100012b5 	.word	0x100012b5
10001454:	20000424 	.word	0x20000424

10001458 <stdio_init_all>:
10001458:	2000      	movs	r0, #0
1000145a:	4770      	bx	lr

1000145c <__wrap_putchar>:
1000145c:	b5f0      	push	{r4, r5, r6, r7, lr}
1000145e:	b083      	sub	sp, #12
10001460:	4606      	mov	r6, r0
10001462:	f88d 0007 	strb.w	r0, [sp, #7]
10001466:	f7ff fcc3 	bl	10000df0 <time_us_64>
1000146a:	f04f 35ff 	mov.w	r5, #4294967295	@ 0xffffffff
1000146e:	f06f 4400 	mvn.w	r4, #2147483648	@ 0x80000000
10001472:	4a17      	ldr	r2, [pc, #92]	@ (100014d0 <__wrap_putchar+0x74>)
10001474:	1882      	adds	r2, r0, r2
10001476:	f141 0300 	adc.w	r3, r1, #0
1000147a:	4295      	cmp	r5, r2
1000147c:	eb74 0103 	sbcs.w	r1, r4, r3
10001480:	bf3c      	itt	cc
10001482:	4623      	movcc	r3, r4
10001484:	462a      	movcc	r2, r5
10001486:	4813      	ldr	r0, [pc, #76]	@ (100014d4 <__wrap_putchar+0x78>)
10001488:	f000 f8f2 	bl	10001670 <__mutex_try_enter_block_until_veneer>
1000148c:	4b12      	ldr	r3, [pc, #72]	@ (100014d8 <__wrap_putchar+0x7c>)
1000148e:	4607      	mov	r7, r0
10001490:	681c      	ldr	r4, [r3, #0]
10001492:	b19c      	cbz	r4, 100014bc <__wrap_putchar+0x60>
10001494:	4d11      	ldr	r5, [pc, #68]	@ (100014dc <__wrap_putchar+0x80>)
10001496:	e001      	b.n	1000149c <__wrap_putchar+0x40>
10001498:	6924      	ldr	r4, [r4, #16]
1000149a:	b17c      	cbz	r4, 100014bc <__wrap_putchar+0x60>
1000149c:	6823      	ldr	r3, [r4, #0]
1000149e:	2b00      	cmp	r3, #0
100014a0:	d0fa      	beq.n	10001498 <__wrap_putchar+0x3c>
100014a2:	682b      	ldr	r3, [r5, #0]
100014a4:	b10b      	cbz	r3, 100014aa <__wrap_putchar+0x4e>
100014a6:	429c      	cmp	r4, r3
100014a8:	d1f6      	bne.n	10001498 <__wrap_putchar+0x3c>
100014aa:	4620      	mov	r0, r4
100014ac:	2201      	movs	r2, #1
100014ae:	f10d 0107 	add.w	r1, sp, #7
100014b2:	f7ff ff03 	bl	100012bc <stdio_out_chars_crlf>
100014b6:	6924      	ldr	r4, [r4, #16]
100014b8:	2c00      	cmp	r4, #0
100014ba:	d1ef      	bne.n	1000149c <__wrap_putchar+0x40>
100014bc:	b917      	cbnz	r7, 100014c4 <__wrap_putchar+0x68>
100014be:	4630      	mov	r0, r6
100014c0:	b003      	add	sp, #12
100014c2:	bdf0      	pop	{r4, r5, r6, r7, pc}
100014c4:	4803      	ldr	r0, [pc, #12]	@ (100014d4 <__wrap_putchar+0x78>)
100014c6:	f000 f8cf 	bl	10001668 <__mutex_exit_veneer>
100014ca:	4630      	mov	r0, r6
100014cc:	b003      	add	sp, #12
100014ce:	bdf0      	pop	{r4, r5, r6, r7, pc}
100014d0:	000f4240 	.word	0x000f4240
100014d4:	20000244 	.word	0x20000244
100014d8:	20000420 	.word	0x20000420
100014dc:	20000424 	.word	0x20000424

100014e0 <__wrap_puts>:
100014e0:	b538      	push	{r3, r4, r5, lr}
100014e2:	4604      	mov	r4, r0
100014e4:	f000 f890 	bl	10001608 <strlen>
100014e8:	2301      	movs	r3, #1
100014ea:	4605      	mov	r5, r0
100014ec:	461a      	mov	r2, r3
100014ee:	4620      	mov	r0, r4
100014f0:	4629      	mov	r1, r5
100014f2:	f7ff ff3b 	bl	1000136c <stdio_put_string>
100014f6:	4b08      	ldr	r3, [pc, #32]	@ (10001518 <__wrap_puts+0x38>)
100014f8:	681c      	ldr	r4, [r3, #0]
100014fa:	b12c      	cbz	r4, 10001508 <__wrap_puts+0x28>
100014fc:	6863      	ldr	r3, [r4, #4]
100014fe:	b12b      	cbz	r3, 1000150c <__wrap_puts+0x2c>
10001500:	4798      	blx	r3
10001502:	6924      	ldr	r4, [r4, #16]
10001504:	2c00      	cmp	r4, #0
10001506:	d1f9      	bne.n	100014fc <__wrap_puts+0x1c>
10001508:	4628      	mov	r0, r5
1000150a:	bd38      	pop	{r3, r4, r5, pc}
1000150c:	6924      	ldr	r4, [r4, #16]
1000150e:	2c00      	cmp	r4, #0
10001510:	d1f4      	bne.n	100014fc <__wrap_puts+0x1c>
10001512:	4628      	mov	r0, r5
10001514:	bd38      	pop	{r3, r4, r5, pc}
10001516:	bf00      	nop
10001518:	20000420 	.word	0x20000420

1000151c <memcpy>:
1000151c:	4684      	mov	ip, r0
1000151e:	ea41 0300 	orr.w	r3, r1, r0
10001522:	f013 0303 	ands.w	r3, r3, #3
10001526:	d149      	bne.n	100015bc <memcpy+0xa0>
10001528:	3a40      	subs	r2, #64	@ 0x40
1000152a:	d323      	bcc.n	10001574 <memcpy+0x58>
1000152c:	680b      	ldr	r3, [r1, #0]
1000152e:	6003      	str	r3, [r0, #0]
10001530:	684b      	ldr	r3, [r1, #4]
10001532:	6043      	str	r3, [r0, #4]
10001534:	688b      	ldr	r3, [r1, #8]
10001536:	6083      	str	r3, [r0, #8]
10001538:	68cb      	ldr	r3, [r1, #12]
1000153a:	60c3      	str	r3, [r0, #12]
1000153c:	690b      	ldr	r3, [r1, #16]
1000153e:	6103      	str	r3, [r0, #16]
10001540:	694b      	ldr	r3, [r1, #20]
10001542:	6143      	str	r3, [r0, #20]
10001544:	698b      	ldr	r3, [r1, #24]
10001546:	6183      	str	r3, [r0, #24]
10001548:	69cb      	ldr	r3, [r1, #28]
1000154a:	61c3      	str	r3, [r0, #28]
1000154c:	6a0b      	ldr	r3, [r1, #32]
1000154e:	6203      	str	r3, [r0, #32]
10001550:	6a4b      	ldr	r3, [r1, #36]	@ 0x24
10001552:	6243      	str	r3, [r0, #36]	@ 0x24
10001554:	6a8b      	ldr	r3, [r1, #40]	@ 0x28
10001556:	6283      	str	r3, [r0, #40]	@ 0x28
10001558:	6acb      	ldr	r3, [r1, #44]	@ 0x2c
1000155a:	62c3      	str	r3, [r0, #44]	@ 0x2c
1000155c:	6b0b      	ldr	r3, [r1, #48]	@ 0x30
1000155e:	6303      	str	r3, [r0, #48]	@ 0x30
10001560:	6b4b      	ldr	r3, [r1, #52]	@ 0x34
10001562:	6343      	str	r3, [r0, #52]	@ 0x34
10001564:	6b8b      	ldr	r3, [r1, #56]	@ 0x38
10001566:	6383      	str	r3, [r0, #56]	@ 0x38
10001568:	6bcb      	ldr	r3, [r1, #60]	@ 0x3c
1000156a:	63c3      	str	r3, [r0, #60]	@ 0x3c
1000156c:	3040      	adds	r0, #64	@ 0x40
1000156e:	3140      	adds	r1, #64	@ 0x40
10001570:	3a40      	subs	r2, #64	@ 0x40
10001572:	d2db      	bcs.n	1000152c <memcpy+0x10>
10001574:	3230      	adds	r2, #48	@ 0x30
10001576:	d30b      	bcc.n	10001590 <memcpy+0x74>
10001578:	680b      	ldr	r3, [r1, #0]
1000157a:	6003      	str	r3, [r0, #0]
1000157c:	684b      	ldr	r3, [r1, #4]
1000157e:	6043      	str	r3, [r0, #4]
10001580:	688b      	ldr	r3, [r1, #8]
10001582:	6083      	str	r3, [r0, #8]
10001584:	68cb      	ldr	r3, [r1, #12]
10001586:	60c3      	str	r3, [r0, #12]
10001588:	3010      	adds	r0, #16
1000158a:	3110      	adds	r1, #16
1000158c:	3a10      	subs	r2, #16
1000158e:	d2f3      	bcs.n	10001578 <memcpy+0x5c>
10001590:	320c      	adds	r2, #12
10001592:	d305      	bcc.n	100015a0 <memcpy+0x84>
10001594:	f851 3b04 	ldr.w	r3, [r1], #4
10001598:	f840 3b04 	str.w	r3, [r0], #4
1000159c:	3a04      	subs	r2, #4
1000159e:	d2f9      	bcs.n	10001594 <memcpy+0x78>
100015a0:	3204      	adds	r2, #4
100015a2:	d008      	beq.n	100015b6 <memcpy+0x9a>
100015a4:	07d2      	lsls	r2, r2, #31
100015a6:	bf1c      	itt	ne
100015a8:	f811 3b01 	ldrbne.w	r3, [r1], #1
100015ac:	f800 3b01 	strbne.w	r3, [r0], #1
100015b0:	d301      	bcc.n	100015b6 <memcpy+0x9a>
100015b2:	880b      	ldrh	r3, [r1, #0]
100015b4:	8003      	strh	r3, [r0, #0]
100015b6:	4660      	mov	r0, ip
100015b8:	4770      	bx	lr
100015ba:	bf00      	nop
100015bc:	2a08      	cmp	r2, #8
100015be:	d313      	bcc.n	100015e8 <memcpy+0xcc>
100015c0:	078b      	lsls	r3, r1, #30
100015c2:	d0b1      	beq.n	10001528 <memcpy+0xc>
100015c4:	f010 0303 	ands.w	r3, r0, #3
100015c8:	d0ae      	beq.n	10001528 <memcpy+0xc>
100015ca:	f1c3 0304 	rsb	r3, r3, #4
100015ce:	1ad2      	subs	r2, r2, r3
100015d0:	07db      	lsls	r3, r3, #31
100015d2:	bf1c      	itt	ne
100015d4:	f811 3b01 	ldrbne.w	r3, [r1], #1
100015d8:	f800 3b01 	strbne.w	r3, [r0], #1
100015dc:	d3a4      	bcc.n	10001528 <memcpy+0xc>
100015de:	f831 3b02 	ldrh.w	r3, [r1], #2
100015e2:	f820 3b02 	strh.w	r3, [r0], #2
100015e6:	e79f      	b.n	10001528 <memcpy+0xc>
100015e8:	3a04      	subs	r2, #4
100015ea:	d3d9      	bcc.n	100015a0 <memcpy+0x84>
100015ec:	3a01      	subs	r2, #1
100015ee:	f811 3b01 	ldrb.w	r3, [r1], #1
100015f2:	f800 3b01 	strb.w	r3, [r0], #1
100015f6:	d2f9      	bcs.n	100015ec <memcpy+0xd0>
100015f8:	780b      	ldrb	r3, [r1, #0]
100015fa:	7003      	strb	r3, [r0, #0]
100015fc:	784b      	ldrb	r3, [r1, #1]
100015fe:	7043      	strb	r3, [r0, #1]
10001600:	788b      	ldrb	r3, [r1, #2]
10001602:	7083      	strb	r3, [r0, #2]
10001604:	4660      	mov	r0, ip
10001606:	4770      	bx	lr

10001608 <strlen>:
10001608:	f020 0103 	bic.w	r1, r0, #3
1000160c:	f010 0003 	ands.w	r0, r0, #3
10001610:	f1c0 0000 	rsb	r0, r0, #0
10001614:	f851 3b04 	ldr.w	r3, [r1], #4
10001618:	f100 0c04 	add.w	ip, r0, #4
1000161c:	ea4f 0ccc 	mov.w	ip, ip, lsl #3
10001620:	f06f 0200 	mvn.w	r2, #0
10001624:	bf1c      	itt	ne
10001626:	fa22 f20c 	lsrne.w	r2, r2, ip
1000162a:	4313      	orrne	r3, r2
1000162c:	f04f 0c01 	mov.w	ip, #1
10001630:	ea4c 2c0c 	orr.w	ip, ip, ip, lsl #8
10001634:	ea4c 4c0c 	orr.w	ip, ip, ip, lsl #16
10001638:	eba3 020c 	sub.w	r2, r3, ip
1000163c:	ea22 0203 	bic.w	r2, r2, r3
10001640:	ea12 12cc 	ands.w	r2, r2, ip, lsl #7
10001644:	bf04      	itt	eq
10001646:	f851 3b04 	ldreq.w	r3, [r1], #4
1000164a:	3004      	addeq	r0, #4
1000164c:	d0f4      	beq.n	10001638 <strlen+0x30>
1000164e:	f1c2 0100 	rsb	r1, r2, #0
10001652:	ea02 0201 	and.w	r2, r2, r1
10001656:	fab2 f282 	clz	r2, r2
1000165a:	f1c2 021f 	rsb	r2, r2, #31
1000165e:	eb00 00d2 	add.w	r0, r0, r2, lsr #3
10001662:	4770      	bx	lr

10001664 <_fini>:
10001664:	b5f8      	push	{r3, r4, r5, r6, r7, lr}
10001666:	bf00      	nop

10001668 <__mutex_exit_veneer>:
10001668:	f85f f000 	ldr.w	pc, [pc]	@ 1000166c <__mutex_exit_veneer+0x4>
1000166c:	200001e5 	.word	0x200001e5

10001670 <__mutex_try_enter_block_until_veneer>:
10001670:	f85f f000 	ldr.w	pc, [pc]	@ 10001674 <__mutex_try_enter_block_until_veneer+0x4>
10001674:	2000017d 	.word	0x2000017d

10001678 <__pre_init_runtime_init_bootrom_reset>:
10001678:	100010dd                                ....

1000167c <__pre_init_runtime_init_early_resets>:
1000167c:	10001051                                Q...

10001680 <__pre_init_runtime_init_usb_power_down>:
10001680:	10001085                                ....

10001684 <__pre_init_runtime_init_clocks>:
10001684:	10001171                                q...

10001688 <__pre_init_runtime_init_post_clock_resets>:
10001688:	100010bd                                ....

1000168c <__pre_init_runtime_init_boot_locks_reset>:
1000168c:	10000fd5                                ....

10001690 <__pre_init_runtime_init_spin_locks_reset>:
10001690:	10001105                                ....

10001694 <__pre_init_runtime_init_bootrom_locking_enable>:
10001694:	10000fc1                                ....

10001698 <__pre_init_runtime_init_mutex>:
10001698:	10000515                                ....

1000169c <__pre_init_runtime_init_install_ram_vector_table>:
1000169c:	10001109                                ....

100016a0 <__pre_init_runtime_init_default_alarm_pool>:
100016a0:	1000089d                                ....

100016a4 <__pre_init_first_per_core_initializer>:
100016a4:	10001021                                !...

100016a8 <__pre_init_runtime_init_per_core_bootrom_reset>:
100016a8:	100010f1                                ....

100016ac <__pre_init_runtime_init_per_core_enable_coprocessors>:
100016ac:	100010a1                                ....

100016b0 <__pre_init_spinlock_set_extexclall>:
100016b0:	10000415                                ....

100016b4 <__pre_init_runtime_init_per_core_irq_priorities>:
100016b4:	1000043d                                =...

100016b8 <__frame_dummy_init_array_entry>:
100016b8:	10000211                                ....

Disassembly of section .data:

20000110 <mutex_enter_block_until>:
20000110:	f04f 4150 	mov.w	r1, #3489660928	@ 0xd0000000
20000114:	e92d 41f0 	stmdb	sp!, {r4, r5, r6, r7, r8, lr}
20000118:	2700      	movs	r7, #0
2000011a:	4604      	mov	r4, r0
2000011c:	4616      	mov	r6, r2
2000011e:	461d      	mov	r5, r3
20000120:	f8d1 8000 	ldr.w	r8, [r1]
20000124:	e008      	b.n	20000138 <mutex_enter_block_until+0x28>
20000126:	e8c1 7f8f 	stlb	r7, [r1]
2000012a:	f38c 8810 	msr	PRIMASK, ip
2000012e:	4630      	mov	r0, r6
20000130:	4629      	mov	r1, r5
20000132:	f000 f875 	bl	20000220 <__best_effort_wfe_or_timeout_veneer>
20000136:	b9e8      	cbnz	r0, 20000174 <mutex_enter_block_until+0x64>
20000138:	6821      	ldr	r1, [r4, #0]
2000013a:	f3ef 8c10 	mrs	ip, PRIMASK
2000013e:	b672      	cpsid	i
20000140:	e8d1 2fcf 	ldaexb	r2, [r1]
20000144:	2301      	movs	r3, #1
20000146:	2a00      	cmp	r2, #0
20000148:	d1fa      	bne.n	20000140 <mutex_enter_block_until+0x30>
2000014a:	e8c1 3f42 	strexb	r2, r3, [r1]
2000014e:	2a00      	cmp	r2, #0
20000150:	d1f6      	bne.n	20000140 <mutex_enter_block_until+0x30>
20000152:	f3bf 8f5f 	dmb	sy
20000156:	f994 3004 	ldrsb.w	r3, [r4, #4]
2000015a:	6821      	ldr	r1, [r4, #0]
2000015c:	2b00      	cmp	r3, #0
2000015e:	dae2      	bge.n	20000126 <mutex_enter_block_until+0x16>
20000160:	2300      	movs	r3, #0
20000162:	f884 8004 	strb.w	r8, [r4, #4]
20000166:	e8c1 3f8f 	stlb	r3, [r1]
2000016a:	f38c 8810 	msr	PRIMASK, ip
2000016e:	2001      	movs	r0, #1
20000170:	e8bd 81f0 	ldmia.w	sp!, {r4, r5, r6, r7, r8, pc}
20000174:	2000      	movs	r0, #0
20000176:	e8bd 81f0 	ldmia.w	sp!, {r4, r5, r6, r7, r8, pc}
2000017a:	bf00      	nop

2000017c <mutex_try_enter_block_until>:
2000017c:	b530      	push	{r4, r5, lr}
2000017e:	6804      	ldr	r4, [r0, #0]
20000180:	f3ef 8c10 	mrs	ip, PRIMASK
20000184:	b672      	cpsid	i
20000186:	e8d4 efcf 	ldaexb	lr, [r4]
2000018a:	2501      	movs	r5, #1
2000018c:	f1be 0f00 	cmp.w	lr, #0
20000190:	d1f9      	bne.n	20000186 <mutex_try_enter_block_until+0xa>
20000192:	e8c4 5f4e 	strexb	lr, r5, [r4]
20000196:	f1be 0f00 	cmp.w	lr, #0
2000019a:	d1f4      	bne.n	20000186 <mutex_try_enter_block_until+0xa>
2000019c:	f3bf 8f5f 	dmb	sy
200001a0:	f990 4004 	ldrsb.w	r4, [r0, #4]
200001a4:	6805      	ldr	r5, [r0, #0]
200001a6:	2c00      	cmp	r4, #0
200001a8:	db10      	blt.n	200001cc <mutex_try_enter_block_until+0x50>
200001aa:	2100      	movs	r1, #0
200001ac:	e8c5 1f8f 	stlb	r1, [r5]
200001b0:	f38c 8810 	msr	PRIMASK, ip
200001b4:	f04f 4550 	mov.w	r5, #3489660928	@ 0xd0000000
200001b8:	f995 5000 	ldrsb.w	r5, [r5]
200001bc:	42a5      	cmp	r5, r4
200001be:	d101      	bne.n	200001c4 <mutex_try_enter_block_until+0x48>
200001c0:	4608      	mov	r0, r1
200001c2:	bd30      	pop	{r4, r5, pc}
200001c4:	e8bd 4030 	ldmia.w	sp!, {r4, r5, lr}
200001c8:	f7ff bfa2 	b.w	20000110 <mutex_enter_block_until>
200001cc:	f04f 4250 	mov.w	r2, #3489660928	@ 0xd0000000
200001d0:	6812      	ldr	r2, [r2, #0]
200001d2:	2300      	movs	r3, #0
200001d4:	7102      	strb	r2, [r0, #4]
200001d6:	e8c5 3f8f 	stlb	r3, [r5]
200001da:	f38c 8810 	msr	PRIMASK, ip
200001de:	2001      	movs	r0, #1
200001e0:	bd30      	pop	{r4, r5, pc}
200001e2:	bf00      	nop

200001e4 <mutex_exit>:
200001e4:	6803      	ldr	r3, [r0, #0]
200001e6:	f3ef 8210 	mrs	r2, PRIMASK
200001ea:	b672      	cpsid	i
200001ec:	e8d3 cfcf 	ldaexb	ip, [r3]
200001f0:	2101      	movs	r1, #1
200001f2:	f1bc 0f00 	cmp.w	ip, #0
200001f6:	d1f9      	bne.n	200001ec <mutex_exit+0x8>
200001f8:	e8c3 1f4c 	strexb	ip, r1, [r3]
200001fc:	f1bc 0f00 	cmp.w	ip, #0
20000200:	d1f4      	bne.n	200001ec <mutex_exit+0x8>
20000202:	f3bf 8f5f 	dmb	sy
20000206:	f04f 0cff 	mov.w	ip, #255	@ 0xff
2000020a:	2300      	movs	r3, #0
2000020c:	6801      	ldr	r1, [r0, #0]
2000020e:	f880 c004 	strb.w	ip, [r0, #4]
20000212:	e8c1 3f8f 	stlb	r3, [r1]
20000216:	f382 8810 	msr	PRIMASK, r2
2000021a:	bf40      	sev
2000021c:	4770      	bx	lr
2000021e:	bf00      	nop

20000220 <__best_effort_wfe_or_timeout_veneer>:
20000220:	f85f f000 	ldr.w	pc, [pc]	@ 20000224 <__best_effort_wfe_or_timeout_veneer+0x4>
20000224:	10000bc9 	.word	0x10000bc9

20000228 <striped_spin_lock_num>:
20000228:	00000010                                ....

2000022c <default_alarm_pool>:
	...
20000240:	20000250                                P.. 

20000244 <print_mutex>:
	...
